
bsides_badge.elf:     file format elf32-littleriscv
bsides_badge.elf
architecture: riscv:rv32, flags 0x00000112:
EXEC_P, HAS_SYMS, D_PAGED
start address 0x00000000

Program Header:
    LOAD off    0x00001000 vaddr 0x00000000 paddr 0x00000000 align 2**12
         filesz 0x00003e44 memsz 0x00003e44 flags r-x
    LOAD off    0x00005000 vaddr 0x20000000 paddr 0x00003e44 align 2**12
         filesz 0x00000068 memsz 0x000002dc flags rw-
    LOAD off    0x00005700 vaddr 0x20000700 paddr 0x20000700 align 2**12
         filesz 0x00000000 memsz 0x00000100 flags rw-

Sections:
Idx Name          Size      VMA       LMA       File off  Algn
  0 .init         000000a0  00000000  00000000  00001000  2**2
                  CONTENTS, ALLOC, LOAD, READONLY, CODE
  1 .text         00003da4  000000a0  000000a0  000010a0  2**2
                  CONTENTS, ALLOC, LOAD, READONLY, CODE
  2 .fini         00000000  00003e44  00003e44  00005068  2**0
                  CONTENTS, ALLOC, LOAD, CODE
  3 .dalign       00000000  20000000  20000000  00005068  2**0
                  CONTENTS
  4 .dlalign      00000000  00003e44  00003e44  00005068  2**0
                  CONTENTS
  5 .data         00000068  20000000  00003e44  00005000  2**2
                  CONTENTS, ALLOC, LOAD, DATA
  6 .bss          00000274  20000068  00003eac  00005068  2**2
                  ALLOC
  7 .stack        00000100  20000700  20000700  00005700  2**0
                  ALLOC
  8 .debug_info   0000f5e6  00000000  00000000  00005068  2**0
                  CONTENTS, READONLY, DEBUGGING
  9 .debug_abbrev 00002a89  00000000  00000000  0001464e  2**0
                  CONTENTS, READONLY, DEBUGGING
 10 .debug_aranges 00000750  00000000  00000000  000170d8  2**3
                  CONTENTS, READONLY, DEBUGGING
 11 .debug_ranges 00000b48  00000000  00000000  00017828  2**3
                  CONTENTS, READONLY, DEBUGGING
 12 .debug_line   0000ab29  00000000  00000000  00018370  2**0
                  CONTENTS, READONLY, DEBUGGING
 13 .debug_str    0000215b  00000000  00000000  00022e99  2**0
                  CONTENTS, READONLY, DEBUGGING
 14 .comment      00000033  00000000  00000000  00024ff4  2**0
                  CONTENTS, READONLY
 15 .debug_frame  000013b8  00000000  00000000  00025028  2**2
                  CONTENTS, READONLY, DEBUGGING
 16 .debug_loc    00004894  00000000  00000000  000263e0  2**0
                  CONTENTS, READONLY, DEBUGGING
SYMBOL TABLE:
00000000 l    d  .init	00000000 .init
000000a0 l    d  .text	00000000 .text
00003e44 l    d  .fini	00000000 .fini
20000000 l    d  .dalign	00000000 .dalign
00003e44 l    d  .dlalign	00000000 .dlalign
20000000 l    d  .data	00000000 .data
20000068 l    d  .bss	00000000 .bss
20000700 l    d  .stack	00000000 .stack
00000000 l    d  .debug_info	00000000 .debug_info
00000000 l    d  .debug_abbrev	00000000 .debug_abbrev
00000000 l    d  .debug_aranges	00000000 .debug_aranges
00000000 l    d  .debug_ranges	00000000 .debug_ranges
00000000 l    d  .debug_line	00000000 .debug_line
00000000 l    d  .debug_str	00000000 .debug_str
00000000 l    d  .comment	00000000 .comment
00000000 l    d  .debug_frame	00000000 .debug_frame
00000000 l    d  .debug_loc	00000000 .debug_loc
00000000 l    df *ABS*	00000000 ch32v00x_it.c
00000000 l    df *ABS*	00000000 driver.c
00000000 l    df *ABS*	00000000 i2c_tx.c
00000000 l    df *ABS*	00000000 main.c
00002f50 l     O .text	00000200 epd_bitmap_logo
00000000 l    df *ABS*	00000000 menus.c
20000068 l     O .bss	00000001 counter.4508
20000069 l     O .bss	00000001 counter.4518
2000006c l     O .bss	00000004 current_menu
20000070 l     O .bss	00000001 led_index.4509
00003194 l     O .text	00000200 epd_bitmap_menu_1
00003394 l     O .text	00000200 epd_bitmap_menu_2
00003594 l     O .text	00000200 epd_bitmap_menu_3
000037a8 l     O .text	0000000c menus_bitmaps
00000000 l    df *ABS*	00000000 oled_min.c
00000000 l    df *ABS*	00000000 system_ch32v00x.c
00000000 l    df *ABS*	00000000 tetris.c
00003bf8 l     O .text	00000004 CSWTCH.214
00003bfc l     O .text	00000006 CSWTCH.215
00003c04 l     O .text	00000006 CSWTCH.216
00000000 l    df *ABS*	00000000 ssd1306.c
00003cd0 l     O .text	000000d0 fontdata
00000000 l    df *ABS*	00000000 ssd1306_i2c.c
00000000 l    df *ABS*	00000000 ch32v00x_gpio.c
00000000 l    df *ABS*	00000000 ch32v00x_rcc.c
20000044 l     O .data	00000014 ADCPrescTable
20000058 l     O .data	00000010 APBAHBPrescTable
00000000 l    df *ABS*	00000000 ch32v00x_usart.c
00000000 l    df *ABS*	00000000 debug.c
200002d8 l     O .bss	00000002 p_ms
200002da l     O .bss	00000001 p_us
00000000 l    df *ABS*	00000000 wchprintf.c
00000000 l    df *ABS*	00000000 memcpy.c
00002aaa  w    F .text	00000004 printDouble
00000cd8 g     F .text	0000001a PSEUDO_RND_TTRIS
00003c98 g     O .text	00000005 tinyblock2_TTTRIS
200000d3 g     O .bss	00000001 SPEED_x_trig_TTRIS
00000338 g     F .text	00000024 map
00002aae  w    F .text	00000360 print
00002e0e  w    F .text	00000024 printf
20000868 g       .data	00000000 __global_pointer$
000005ae g     F .text	00000014 move_leds_options_down
00001dc6  w      .text	00000000 TIM1_CC_IRQHandler
0000154e g     F .text	000001ca recupe_SCORES_TTRIS
00001f8e g     F .text	00000040 ssd1306_drawPixel
000001f4 g     F .text	00000002 HardFault_Handler
2000007a g     O .bss	00000001 DEPLACEMENT_YY_TTRIS
0000298c  w    F .text	0000011a printInt
200000b5 g     O .bss	00000001 PIECEs_rot_TTRIS
20000079 g     O .bss	00000001 DEPLACEMENT_XX_TTRIS
00001dc6  w      .text	00000000 SysTick_Handler
000023f0 g     F .text	00000042 ssd1306_pkt_send
00003ca0 g     O .text	00000005 tinyblock_TTTRIS
00003c0c g     O .text	00000027 H_Grid_TTTRIS
00001cbe g     F .text	0000000e Reset_Value_TTRIS
00001dc6  w      .text	00000000 PVD_IRQHandler
00000950 g     F .text	000000a6 display_credits
00001e78 g     F .text	0000001c ssd1306_setbuf
000001f2 g     F .text	00000002 NMI_Handler
000009f6 g     F .text	00000100 menus_init
00003c68 g     O .text	0000002a police_TTRIS
200000a5 g     O .bss	00000001 Level_Speed_ADJ_TTRIS
00002730 g     F .text	0000000a USART_GetFlagStatus
200000b3 g     O .bss	00000001 PIECEs_TTRIS
00000ed6 g     F .text	00000042 GRID_STAT_TTRIS
20000068 g       .bss	00000000 _sbss
00000100 g       *ABS*	00000000 __stack_size
00003c94 g     O .text	00000004 tiny_PREVIEW_block_TTTRIS
000021ba g     F .text	0000003c ssd1306_drawstr
000027a8 g     F .text	0000005c USART_Printf_Init
00003c44 g     O .text	00000023 Pieces_TTRIS
000005d6 g     F .text	00000164 leds_control_menu
200000b1 g     O .bss	00000001 OU_SUIS_JE_Y_ENGAGED_TTRIS
000000aa g     F .text	0000000a .hidden __riscv_restore_2
00002e7c g     F .text	000000d2 memcpy
000024ae g     F .text	000000c4 GPIO_PinRemapConfig
00002aa6  w    F .text	00000004 printLongLongInt
200000d8 g     O .bss	00000200 ssd1306_buffer
00002e32 g     F .text	0000004a puts
000003a2 g     F .text	0000004a I2C_start
2000002c g     O .data	00000004 SystemCoreClock
00000d2e g     F .text	0000001c Calcul_of_Score_TTRIS
000000d4 g     F .text	0000002c .hidden __udivsi3
20000008 g     O .data	00000001 leds_count
200000d7 g     O .bss	00000001 yy_TTRIS
000000a0 g       .init	00000000 _einit
20000080 g     O .bss	00000024 Grid_TTRIS
00002626 g     F .text	0000001e RCC_APB2PeriphClockCmd
000037f8 g     O .text	00000400 BACKGROUND_TTRIS
00002432 g     F .text	0000007c GPIO_Init
000037c8 g     O .text	00000011 OLED_INIT_CMD
20000078 g     O .bss	00000001 refrese_rate_s
2000000c g     O .data	0000000c leds_options
00001dc6  w      .text	00000000 SPI1_IRQHandler
00002712 g     F .text	00000016 USART_Cmd
20000074 g     O .bss	00000004 leds_speed
0000057a g     F .text	0000001a menus_move_down
000000a0 g     F .text	0000000a .hidden __riscv_save_1
000005c2 g     F .text	00000014 move_leds_options_up
000000aa g     F .text	0000000a .hidden __riscv_restore_0
00001dc6  w      .text	00000000 AWU_IRQHandler
00001dc6  w      .text	00000000 EXTI7_0_IRQHandler
00001e6a g     F .text	0000000e ssd1306_data
00001fce g     F .text	00000162 ssd1306_drawImage
0000073a g     F .text	00000216 leds_control_handler
200000af g     O .bss	00000001 OU_SUIS_JE_X_ENGAGED_TTRIS
00000fc0 g     F .text	00000082 Check_collision_y_TTRIS
20000700 g       .stack	00000000 _heap_end
0000187e g     F .text	0000010e Recupe_TTRIS
00000306 g     F .text	00000012 joy_down_pressed
00001dc6  w      .text	00000000 DMA1_Channel4_IRQHandler
00001dc6  w      .text	00000000 ADC1_IRQHandler
00000df4 g     F .text	000000c4 rotate_Matrix_TTRIS
00000dda g     F .text	0000001a Scan_Piece_Matrix_TTRIS
200002dc g       .bss	00000000 _ebss
200000d2 g     O .bss	00000001 Ripple_filter_TTRIS
00001dc6  w      .text	00000000 DMA1_Channel7_IRQHandler
0000273a g     F .text	00000034 Delay_Init
00000b46 g     F .text	00000040 OLED_setpos
000001f6 g     F .text	00000100 JOY_init
2000007e g     O .bss	00000001 DROP_TRIG_TTRIS
000019d4 g     F .text	00000030 FLASH_LINE_TTRIS
00000100 g     F .text	00000008 .hidden __umodsi3
00001e50 g     F .text	0000001a ssd1306_cmd
00001dc6  w      .text	00000000 I2C1_EV_IRQHandler
20000000 g     O .data	00000008 leds
20000030 g     O .data	00000014 errstr
00002584 g     F .text	000000a2 RCC_GetClocksFreq
00001dc6  w      .text	00000000 DMA1_Channel6_IRQHandler
00002644 g     F .text	000000ce USART_Init
000022d8 g     F .text	0000001c ssd1306_i2c_chk_evt
00001dc6  w      .text	00000000 RCC_IRQHandler
000013f4 g     F .text	000000cc NEXT_BLOCK_TTRIS
200000d4 g     O .bss	00000002 Scores_TTRIS
00001dc6  w      .text	00000000 TIM1_TRG_COM_IRQHandler
00001dc6  w      .text	00000000 DMA1_Channel1_IRQHandler
00000000 g       .init	00000000 _start
200000b4 g     O .bss	00000001 PIECEs_TTRIS_PREVIEW
2000001c g     O .data	00000010 AHBPrescTable
00001776 g     F .text	0000008a recupe_Nb_of_line_TTRIS
0000289e  w    F .text	000000ee prints
000000b4 g     F .text	00000014 .hidden __mulsi3
000022b0 g     F .text	00000028 ssd1306_i2c_error
00000318 g     F .text	00000010 joy_left_pressed
20000018 g     O .data	00000003 leds_speeds
00003cc0 g     O .text	00000010 expand
20000000 g       .dalign	00000000 _data_vma
00001086 g     F .text	00000144 CONTROLE_TTRIS
00000b2e g     F .text	00000018 OLED_data_start
00001a04 g     F .text	000000b0 DELETE_LINE_TTRIS
0000014a g     F .text	000000a8 memset
2000007d g     O .bss	00000001 DROP_SPEED_TTRIS
200000a6 g     O .bss	00000001 Level_TTRIS
00002572 g     F .text	00000012 RCC_AdjustHSICalibrationValue
0000041e g     F .text	00000126 main
200000a4 g     O .bss	00000001 LONG_PRESS_X_TTRIS
00002130 g     F .text	0000008a ssd1306_drawchar
00001c2a g     F .text	00000094 INIT_ALL_VAR_TTRIS
00001dc6  w      .text	00000000 DMA1_Channel5_IRQHandler
0000276e g     F .text	0000003a Delay_Ms
000000cc g     F .text	00000058 .hidden __divsi3
00001262 g     F .text	000000a2 Clean_Grid_TTRIS
00000594 g     F .text	0000001a menus_move_up
00000b86 g     F .text	000000e6 SystemInit
00002854  w    F .text	0000004a printchar
00000000 g       .init	00000000 _sinit
0000198c g     F .text	00000048 Tiny_Flip_TTRIS
00003c34 g     O .text	00000010 MEM_TTTRIS
00001dc6  w      .text	00000000 DMA1_Channel3_IRQHandler
0000120e g     F .text	00000054 PAINT_LINE_TTRIS
00001dc6  w      .text	00000000 TIM1_UP_IRQHandler
000002f6 g     F .text	00000010 joy_up_pressed
00001dc6  w      .text	00000000 WWDG_IRQHandler
00001800 g     F .text	0000007e recupe_LEVEL_TTRIS
00001dc6  w      .text	00000000 TIM2_IRQHandler
20000800 g       .stack	00000000 _eusrstack
000000a0 g     F .text	0000000a .hidden __riscv_save_2
00001dc6  w      .text	00000000 SW_Handler
000011ca g     F .text	00000044 CHANGE_GRID_STAT_TTRIS
00001304 g     F .text	000000f0 blitzSprite_TTRIS
0000035c g     F .text	00000046 I2C_init
00001dc6  w      .text	00000000 TIM1_BRK_IRQHandler
00002728 g     F .text	00000008 USART_SendData
00001ccc g     F .text	000000fa tetris_start
00001042 g     F .text	00000044 CHECK_if_Rot_Ok_TTRIS
00001718 g     F .text	0000005e Convert_Nb_of_line_TTRIS
00002804 g     F .text	00000050 _write
20000068 g       .data	00000000 _edata
00001ab4 g     F .text	0000008e END_DROP_TTRIS
00000f40 g     F .text	00000080 Check_collision_x_TTRIS
200002dc g       .bss	00000000 _end
200000a8 g     O .bss	00000002 Nb_of_line_F_TTRIS
200000d6 g     O .bss	00000001 xx_TTRIS
00003e44 g       .dlalign	00000000 _data_lma
00000c6c g     F .text	0000006c SystemCoreClockUpdate
00000124 g     F .text	00000024 .hidden __modsi3
2000007b g     O .bss	00000001 DOWN_DESACTIVE_TTRIS
00001dc6  w      .text	00000000 DMA1_Channel2_IRQHandler
200000b2 g     O .bss	00000001 OU_SUIS_JE_Y_TTRIS
00001f7c g     F .text	00000012 ssd1306_clear
200000d1 g     O .bss	00000001 RND_VAR_TTRIS
00001dc8  w      .text	00000000 handle_reset
00000af6 g     F .text	00000038 OLED_init
00000328 g     F .text	00000010 joy_right_pressed
00001dc6  w      .text	00000000 FLASH_IRQHandler
000000a0 g     F .text	0000000a .hidden __riscv_save_0
2000007c g     O .bss	00000001 DROP_BREAK_TTRIS
00000eb8 g     F .text	0000001e SETUP_NEW_PREVIEW_PIECE_TTRIS
00001dc6  w      .text	00000000 USART1_IRQHandler
200000b0 g     O .bss	00000001 OU_SUIS_JE_X_TTRIS
00000f18 g     F .text	00000028 End_Play_TTRIS
00001dc6  w      .text	00000000 I2C1_ER_IRQHandler
000000aa g     F .text	0000000a .hidden __riscv_restore_1
00001e94 g     F .text	000000e8 ssd1306_refresh
00000544 g     F .text	00000036 display_menu
200000b8 g     O .bss	00000019 Piece_Mat2_TTRIS
000014c0 g     F .text	0000008e DropPiece_TTRIS
00000cf2 g     F .text	0000003c Game_Play_TTRIS
00000dae g     F .text	0000002c Select_Piece_TTRIS
200000ac g     O .bss	00000003 Nb_of_line_TTRIS
00000d4a g     F .text	00000064 Ou_suis_Je_TTRIS
00000404 g     F .text	0000001a I2C_stop
000021f6 g     F .text	000000ba ssd1306_i2c_setup
00001b42 g     F .text	000000e8 Move_Piece_TTRIS
000003ec g     F .text	00000018 I2C_write
000022f4 g     F .text	000000fc ssd1306_i2c_send



Disassembly of section .init:

00000000 <_sinit>:
   0:	5c90106f          	j	1dc8 <handle_reset>
   4:	0000                	unimp
   6:	0000                	unimp
   8:	01f2                	slli	gp,gp,0x1c
   a:	0000                	unimp
   c:	01f4                	addi	a3,sp,204
	...
  2e:	0000                	unimp
  30:	1dc6                	slli	s11,s11,0x31
  32:	0000                	unimp
  34:	0000                	unimp
  36:	0000                	unimp
  38:	1dc6                	slli	s11,s11,0x31
  3a:	0000                	unimp
  3c:	0000                	unimp
  3e:	0000                	unimp
  40:	1dc6                	slli	s11,s11,0x31
  42:	0000                	unimp
  44:	1dc6                	slli	s11,s11,0x31
  46:	0000                	unimp
  48:	1dc6                	slli	s11,s11,0x31
  4a:	0000                	unimp
  4c:	1dc6                	slli	s11,s11,0x31
  4e:	0000                	unimp
  50:	1dc6                	slli	s11,s11,0x31
  52:	0000                	unimp
  54:	1dc6                	slli	s11,s11,0x31
  56:	0000                	unimp
  58:	1dc6                	slli	s11,s11,0x31
  5a:	0000                	unimp
  5c:	1dc6                	slli	s11,s11,0x31
  5e:	0000                	unimp
  60:	1dc6                	slli	s11,s11,0x31
  62:	0000                	unimp
  64:	1dc6                	slli	s11,s11,0x31
  66:	0000                	unimp
  68:	1dc6                	slli	s11,s11,0x31
  6a:	0000                	unimp
  6c:	1dc6                	slli	s11,s11,0x31
  6e:	0000                	unimp
  70:	1dc6                	slli	s11,s11,0x31
  72:	0000                	unimp
  74:	1dc6                	slli	s11,s11,0x31
  76:	0000                	unimp
  78:	1dc6                	slli	s11,s11,0x31
  7a:	0000                	unimp
  7c:	1dc6                	slli	s11,s11,0x31
  7e:	0000                	unimp
  80:	1dc6                	slli	s11,s11,0x31
  82:	0000                	unimp
  84:	1dc6                	slli	s11,s11,0x31
  86:	0000                	unimp
  88:	1dc6                	slli	s11,s11,0x31
  8a:	0000                	unimp
  8c:	1dc6                	slli	s11,s11,0x31
  8e:	0000                	unimp
  90:	1dc6                	slli	s11,s11,0x31
  92:	0000                	unimp
  94:	1dc6                	slli	s11,s11,0x31
  96:	0000                	unimp
  98:	1dc6                	slli	s11,s11,0x31
  9a:	0000                	unimp
  9c:	0000                	unimp
	...

Disassembly of section .text:

000000a0 <__riscv_save_0>:
      a0:	1151                	addi	sp,sp,-12
      a2:	c026                	sw	s1,0(sp)
      a4:	c222                	sw	s0,4(sp)
      a6:	c406                	sw	ra,8(sp)
      a8:	8282                	jr	t0

000000aa <__riscv_restore_0>:
      aa:	4482                	lw	s1,0(sp)
      ac:	4412                	lw	s0,4(sp)
      ae:	40a2                	lw	ra,8(sp)
      b0:	0131                	addi	sp,sp,12
      b2:	8082                	ret

000000b4 <__mulsi3>:
      b4:	862a                	mv	a2,a0
      b6:	4501                	li	a0,0
      b8:	0015f693          	andi	a3,a1,1
      bc:	c291                	beqz	a3,c0 <__mulsi3+0xc>
      be:	9532                	add	a0,a0,a2
      c0:	8185                	srli	a1,a1,0x1
      c2:	0606                	slli	a2,a2,0x1
      c4:	f9f5                	bnez	a1,b8 <__mulsi3+0x4>
      c6:	8082                	ret
      c8:	0000                	unimp
	...

000000cc <__divsi3>:
      cc:	02054e63          	bltz	a0,108 <__umodsi3+0x8>
      d0:	0405c363          	bltz	a1,116 <__umodsi3+0x16>

000000d4 <__udivsi3>:
      d4:	862e                	mv	a2,a1
      d6:	85aa                	mv	a1,a0
      d8:	557d                	li	a0,-1
      da:	c215                	beqz	a2,fe <__udivsi3+0x2a>
      dc:	4685                	li	a3,1
      de:	00b67863          	bgeu	a2,a1,ee <__udivsi3+0x1a>
      e2:	00c05663          	blez	a2,ee <__udivsi3+0x1a>
      e6:	0606                	slli	a2,a2,0x1
      e8:	0686                	slli	a3,a3,0x1
      ea:	feb66ce3          	bltu	a2,a1,e2 <__udivsi3+0xe>
      ee:	4501                	li	a0,0
      f0:	00c5e463          	bltu	a1,a2,f8 <__udivsi3+0x24>
      f4:	8d91                	sub	a1,a1,a2
      f6:	8d55                	or	a0,a0,a3
      f8:	8285                	srli	a3,a3,0x1
      fa:	8205                	srli	a2,a2,0x1
      fc:	faf5                	bnez	a3,f0 <__udivsi3+0x1c>
      fe:	8082                	ret

00000100 <__umodsi3>:
     100:	8286                	mv	t0,ra
     102:	3fc9                	jal	d4 <__udivsi3>
     104:	852e                	mv	a0,a1
     106:	8282                	jr	t0
     108:	40a00533          	neg	a0,a0
     10c:	0005d763          	bgez	a1,11a <__umodsi3+0x1a>
     110:	40b005b3          	neg	a1,a1
     114:	b7c1                	j	d4 <__udivsi3>
     116:	40b005b3          	neg	a1,a1
     11a:	8286                	mv	t0,ra
     11c:	3f65                	jal	d4 <__udivsi3>
     11e:	40a00533          	neg	a0,a0
     122:	8282                	jr	t0

00000124 <__modsi3>:
     124:	8286                	mv	t0,ra
     126:	0005c763          	bltz	a1,134 <__modsi3+0x10>
     12a:	00054963          	bltz	a0,13c <__modsi3+0x18>
     12e:	375d                	jal	d4 <__udivsi3>
     130:	852e                	mv	a0,a1
     132:	8282                	jr	t0
     134:	40b005b3          	neg	a1,a1
     138:	fe055be3          	bgez	a0,12e <__modsi3+0xa>
     13c:	40a00533          	neg	a0,a0
     140:	3f51                	jal	d4 <__udivsi3>
     142:	40b00533          	neg	a0,a1
     146:	8282                	jr	t0
	...

0000014a <memset>:
     14a:	433d                	li	t1,15
     14c:	872a                	mv	a4,a0
     14e:	02c37363          	bgeu	t1,a2,174 <memset+0x2a>
     152:	00f77793          	andi	a5,a4,15
     156:	efbd                	bnez	a5,1d4 <memset+0x8a>
     158:	e5ad                	bnez	a1,1c2 <memset+0x78>
     15a:	ff067693          	andi	a3,a2,-16
     15e:	8a3d                	andi	a2,a2,15
     160:	96ba                	add	a3,a3,a4
     162:	c30c                	sw	a1,0(a4)
     164:	c34c                	sw	a1,4(a4)
     166:	c70c                	sw	a1,8(a4)
     168:	c74c                	sw	a1,12(a4)
     16a:	0741                	addi	a4,a4,16
     16c:	fed76be3          	bltu	a4,a3,162 <memset+0x18>
     170:	e211                	bnez	a2,174 <memset+0x2a>
     172:	8082                	ret
     174:	40c306b3          	sub	a3,t1,a2
     178:	068a                	slli	a3,a3,0x2
     17a:	00000297          	auipc	t0,0x0
     17e:	9696                	add	a3,a3,t0
     180:	00a68067          	jr	10(a3)
     184:	00b70723          	sb	a1,14(a4)
     188:	00b706a3          	sb	a1,13(a4)
     18c:	00b70623          	sb	a1,12(a4)
     190:	00b705a3          	sb	a1,11(a4)
     194:	00b70523          	sb	a1,10(a4)
     198:	00b704a3          	sb	a1,9(a4)
     19c:	00b70423          	sb	a1,8(a4)
     1a0:	00b703a3          	sb	a1,7(a4)
     1a4:	00b70323          	sb	a1,6(a4)
     1a8:	00b702a3          	sb	a1,5(a4)
     1ac:	00b70223          	sb	a1,4(a4)
     1b0:	00b701a3          	sb	a1,3(a4)
     1b4:	00b70123          	sb	a1,2(a4)
     1b8:	00b700a3          	sb	a1,1(a4)
     1bc:	00b70023          	sb	a1,0(a4)
     1c0:	8082                	ret
     1c2:	0ff5f593          	andi	a1,a1,255
     1c6:	00859693          	slli	a3,a1,0x8
     1ca:	8dd5                	or	a1,a1,a3
     1cc:	01059693          	slli	a3,a1,0x10
     1d0:	8dd5                	or	a1,a1,a3
     1d2:	b761                	j	15a <memset+0x10>
     1d4:	00279693          	slli	a3,a5,0x2
     1d8:	00000297          	auipc	t0,0x0
     1dc:	9696                	add	a3,a3,t0
     1de:	8286                	mv	t0,ra
     1e0:	fa8680e7          	jalr	-88(a3)
     1e4:	8096                	mv	ra,t0
     1e6:	17c1                	addi	a5,a5,-16
     1e8:	8f1d                	sub	a4,a4,a5
     1ea:	963e                	add	a2,a2,a5
     1ec:	f8c374e3          	bgeu	t1,a2,174 <memset+0x2a>
     1f0:	b7a5                	j	158 <memset+0xe>

000001f2 <NMI_Handler>:
     1f2:	a001                	j	1f2 <NMI_Handler>

000001f4 <HardFault_Handler>:
     1f4:	a001                	j	1f4 <HardFault_Handler>

000001f6 <JOY_init>:
     1f6:	eabff2ef          	jal	t0,a0 <__riscv_save_0>
     1fa:	40021737          	lui	a4,0x40021
     1fe:	4f1c                	lw	a5,24(a4)
     200:	76c5                	lui	a3,0xffff1
     202:	16fd                	addi	a3,a3,-1
     204:	0347e793          	ori	a5,a5,52
     208:	cf1c                	sw	a5,24(a4)
     20a:	400117b7          	lui	a5,0x40011
     20e:	4007a703          	lw	a4,1024(a5) # 40011400 <__global_pointer$+0x20010b98>
     212:	ff1005b7          	lui	a1,0xff100
     216:	15fd                	addi	a1,a1,-1
     218:	8f75                	and	a4,a4,a3
     21a:	6685                	lui	a3,0x1
     21c:	8f55                	or	a4,a4,a3
     21e:	40e7a023          	sw	a4,1024(a5)
     222:	4007a703          	lw	a4,1024(a5)
     226:	00100637          	lui	a2,0x100
     22a:	fff106b7          	lui	a3,0xfff10
     22e:	8f6d                	and	a4,a4,a1
     230:	8f51                	or	a4,a4,a2
     232:	40e7a023          	sw	a4,1024(a5)
     236:	4007a703          	lw	a4,1024(a5)
     23a:	16fd                	addi	a3,a3,-1
     23c:	1151                	addi	sp,sp,-12
     23e:	8f75                	and	a4,a4,a3
     240:	66c1                	lui	a3,0x10
     242:	8f55                	or	a4,a4,a3
     244:	40e7a023          	sw	a4,1024(a5)
     248:	8007a683          	lw	a3,-2048(a5)
     24c:	777d                	lui	a4,0xfffff
     24e:	0ff70713          	addi	a4,a4,255 # fffff0ff <__global_pointer$+0xdfffe897>
     252:	f0f6f693          	andi	a3,a3,-241
     256:	0106e693          	ori	a3,a3,16
     25a:	80d7a023          	sw	a3,-2048(a5)
     25e:	4007a683          	lw	a3,1024(a5)
     262:	4541                	li	a0,16
     264:	440d                	li	s0,3
     266:	8ef9                	and	a3,a3,a4
     268:	1006e693          	ori	a3,a3,256
     26c:	40d7a023          	sw	a3,1024(a5)
     270:	4398                	lw	a4,0(a5)
     272:	f10006b7          	lui	a3,0xf1000
     276:	16fd                	addi	a3,a3,-1
     278:	8f6d                	and	a4,a4,a1
     27a:	8f51                	or	a4,a4,a2
     27c:	c398                	sw	a4,0(a5)
     27e:	4398                	lw	a4,0(a5)
     280:	4585                	li	a1,1
     282:	04800493          	li	s1,72
     286:	9b41                	andi	a4,a4,-16
     288:	00176713          	ori	a4,a4,1
     28c:	c398                	sw	a4,0(a5)
     28e:	4007a703          	lw	a4,1024(a5)
     292:	8f75                	and	a4,a4,a3
     294:	010006b7          	lui	a3,0x1000
     298:	8f55                	or	a4,a4,a3
     29a:	40e7a023          	sw	a4,1024(a5)
     29e:	388020ef          	jal	ra,2626 <RCC_APB2PeriphClockCmd>
     2a2:	05800793          	li	a5,88
     2a6:	858a                	mv	a1,sp
     2a8:	40011537          	lui	a0,0x40011
     2ac:	c426                	sw	s1,8(sp)
     2ae:	807c                	sh	a5,0(sp)
     2b0:	c222                	sw	s0,4(sp)
     2b2:	180020ef          	jal	ra,2432 <GPIO_Init>
     2b6:	400117b7          	lui	a5,0x40011
     2ba:	40078293          	addi	t0,a5,1024 # 40011400 <__global_pointer$+0x20010b98>
     2be:	4685                	li	a3,1
     2c0:	8516                	mv	a0,t0
     2c2:	858a                	mv	a1,sp
     2c4:	8074                	sh	a3,0(sp)
     2c6:	c426                	sw	s1,8(sp)
     2c8:	c222                	sw	s0,4(sp)
     2ca:	168020ef          	jal	ra,2432 <GPIO_Init>
     2ce:	4581                	li	a1,0
     2d0:	6521                	lui	a0,0x8
     2d2:	1dc020ef          	jal	ra,24ae <GPIO_PinRemapConfig>
     2d6:	400117b7          	lui	a5,0x40011
     2da:	80078313          	addi	t1,a5,-2048 # 40010800 <__global_pointer$+0x2000ff98>
     2de:	4711                	li	a4,4
     2e0:	858a                	mv	a1,sp
     2e2:	851a                	mv	a0,t1
     2e4:	8078                	sh	a4,0(sp)
     2e6:	c426                	sw	s1,8(sp)
     2e8:	c222                	sw	s0,4(sp)
     2ea:	148020ef          	jal	ra,2432 <GPIO_Init>
     2ee:	009000ef          	jal	ra,af6 <OLED_init>
     2f2:	0131                	addi	sp,sp,12
     2f4:	bb5d                	j	aa <__riscv_restore_0>

000002f6 <joy_up_pressed>:
     2f6:	400117b7          	lui	a5,0x40011
     2fa:	4788                	lw	a0,8(a5)
     2fc:	8111                	srli	a0,a0,0x4
     2fe:	fff54513          	not	a0,a0
     302:	8905                	andi	a0,a0,1
     304:	8082                	ret

00000306 <joy_down_pressed>:
     306:	400117b7          	lui	a5,0x40011
     30a:	8087a503          	lw	a0,-2040(a5) # 40010808 <__global_pointer$+0x2000ffa0>
     30e:	8109                	srli	a0,a0,0x2
     310:	fff54513          	not	a0,a0
     314:	8905                	andi	a0,a0,1
     316:	8082                	ret

00000318 <joy_left_pressed>:
     318:	400117b7          	lui	a5,0x40011
     31c:	4788                	lw	a0,8(a5)
     31e:	810d                	srli	a0,a0,0x3
     320:	fff54513          	not	a0,a0
     324:	8905                	andi	a0,a0,1
     326:	8082                	ret

00000328 <joy_right_pressed>:
     328:	400117b7          	lui	a5,0x40011
     32c:	4087a503          	lw	a0,1032(a5) # 40011408 <__global_pointer$+0x20010ba0>
     330:	fff54513          	not	a0,a0
     334:	8905                	andi	a0,a0,1
     336:	8082                	ret

00000338 <map>:
     338:	d69ff2ef          	jal	t0,a0 <__riscv_save_0>
     33c:	842e                	mv	s0,a1
     33e:	1161                	addi	sp,sp,-8
     340:	40d705b3          	sub	a1,a4,a3
     344:	8d01                	sub	a0,a0,s0
     346:	c036                	sw	a3,0(sp)
     348:	c232                	sw	a2,4(sp)
     34a:	33ad                	jal	b4 <__mulsi3>
     34c:	4612                	lw	a2,4(sp)
     34e:	408605b3          	sub	a1,a2,s0
     352:	3bad                	jal	cc <__divsi3>
     354:	4682                	lw	a3,0(sp)
     356:	0121                	addi	sp,sp,8
     358:	9536                	add	a0,a0,a3
     35a:	bb81                	j	aa <__riscv_restore_0>

0000035c <I2C_init>:
     35c:	400217b7          	lui	a5,0x40021
     360:	4f98                	lw	a4,24(a5)
     362:	002006b7          	lui	a3,0x200
     366:	01176713          	ori	a4,a4,17
     36a:	cf98                	sw	a4,24(a5)
     36c:	4fd8                	lw	a4,28(a5)
     36e:	8f55                	or	a4,a4,a3
     370:	cfd8                	sw	a4,28(a5)
     372:	400116b7          	lui	a3,0x40011
     376:	429c                	lw	a5,0(a3)
     378:	777d                	lui	a4,0xfffff
     37a:	073d                	addi	a4,a4,15
     37c:	8ff9                	and	a5,a5,a4
     37e:	6705                	lui	a4,0x1
     380:	dd070713          	addi	a4,a4,-560 # dd0 <Select_Piece_TTRIS+0x22>
     384:	8fd9                	or	a5,a5,a4
     386:	c29c                	sw	a5,0(a3)
     388:	40005737          	lui	a4,0x40005
     38c:	4791                	li	a5,4
     38e:	40f71223          	sh	a5,1028(a4) # 40005404 <__global_pointer$+0x20004b9c>
     392:	77e1                	lui	a5,0xffff8
     394:	07d1                	addi	a5,a5,20
     396:	40f71e23          	sh	a5,1052(a4)
     39a:	4785                	li	a5,1
     39c:	40f71023          	sh	a5,1024(a4)
     3a0:	8082                	ret

000003a2 <I2C_start>:
     3a2:	400056b7          	lui	a3,0x40005
     3a6:	4186d703          	lhu	a4,1048(a3) # 40005418 <__global_pointer$+0x20004bb0>
     3aa:	8b09                	andi	a4,a4,2
     3ac:	ff6d                	bnez	a4,3a6 <I2C_start+0x4>
     3ae:	4006d703          	lhu	a4,1024(a3)
     3b2:	10076713          	ori	a4,a4,256
     3b6:	40e69023          	sh	a4,1024(a3)
     3ba:	400056b7          	lui	a3,0x40005
     3be:	4146d783          	lhu	a5,1044(a3) # 40005414 <__global_pointer$+0x20004bac>
     3c2:	8b85                	andi	a5,a5,1
     3c4:	dfed                	beqz	a5,3be <I2C_start+0x1c>
     3c6:	0542                	slli	a0,a0,0x10
     3c8:	8141                	srli	a0,a0,0x10
     3ca:	00820737          	lui	a4,0x820
     3ce:	40a69823          	sh	a0,1040(a3)
     3d2:	40005637          	lui	a2,0x40005
     3d6:	070d                	addi	a4,a4,3
     3d8:	41465783          	lhu	a5,1044(a2) # 40005414 <__global_pointer$+0x20004bac>
     3dc:	41865683          	lhu	a3,1048(a2)
     3e0:	07c2                	slli	a5,a5,0x10
     3e2:	8fd5                	or	a5,a5,a3
     3e4:	8ff9                	and	a5,a5,a4
     3e6:	fee799e3          	bne	a5,a4,3d8 <I2C_start+0x36>
     3ea:	8082                	ret

000003ec <I2C_write>:
     3ec:	400056b7          	lui	a3,0x40005
     3f0:	4146d783          	lhu	a5,1044(a3) # 40005414 <__global_pointer$+0x20004bac>
     3f4:	0807f793          	andi	a5,a5,128
     3f8:	dfe5                	beqz	a5,3f0 <I2C_write+0x4>
     3fa:	0542                	slli	a0,a0,0x10
     3fc:	8141                	srli	a0,a0,0x10
     3fe:	40a69823          	sh	a0,1040(a3)
     402:	8082                	ret

00000404 <I2C_stop>:
     404:	400056b7          	lui	a3,0x40005
     408:	4146d703          	lhu	a4,1044(a3) # 40005414 <__global_pointer$+0x20004bac>
     40c:	8b11                	andi	a4,a4,4
     40e:	df6d                	beqz	a4,408 <I2C_stop+0x4>
     410:	4006d703          	lhu	a4,1024(a3)
     414:	20076713          	ori	a4,a4,512
     418:	40e69023          	sh	a4,1024(a3)
     41c:	8082                	ret

0000041e <main>:
     41e:	c83ff2ef          	jal	t0,a0 <__riscv_save_0>
     422:	04b000ef          	jal	ra,c6c <SystemCoreClockUpdate>
     426:	314020ef          	jal	ra,273a <Delay_Init>
     42a:	6571                	lui	a0,0x1c
     42c:	20050513          	addi	a0,a0,512 # 1c200 <_data_lma+0x183bc>
     430:	378020ef          	jal	ra,27a8 <USART_Printf_Init>
     434:	33c9                	jal	1f6 <JOY_init>
     436:	4501                	li	a0,0
     438:	241010ef          	jal	ra,1e78 <ssd1306_setbuf>
     43c:	259010ef          	jal	ra,1e94 <ssd1306_refresh>
     440:	650d                	lui	a0,0x3
     442:	4785                	li	a5,1
     444:	02000713          	li	a4,32
     448:	08000693          	li	a3,128
     44c:	4601                	li	a2,0
     44e:	4581                	li	a1,0
     450:	f5050513          	addi	a0,a0,-176 # 2f50 <epd_bitmap_logo>
     454:	37b010ef          	jal	ra,1fce <ssd1306_drawImage>
     458:	4481                	li	s1,0
     45a:	23b010ef          	jal	ra,1e94 <ssd1306_refresh>
     45e:	20000437          	lui	s0,0x20000
     462:	00844783          	lbu	a5,8(s0) # 20000008 <leds_count>
     466:	00f4e963          	bltu	s1,a5,478 <main+0x5a>
     46a:	1f400513          	li	a0,500
     46e:	300020ef          	jal	ra,276e <Delay_Ms>
     472:	2351                	jal	9f6 <menus_init>
     474:	4501                	li	a0,0
     476:	b915                	j	aa <__riscv_restore_0>
     478:	20000737          	lui	a4,0x20000
     47c:	00070793          	mv	a5,a4
     480:	97a6                	add	a5,a5,s1
     482:	239c                	lbu	a5,0(a5)
     484:	469d                	li	a3,7
     486:	04f6e563          	bltu	a3,a5,4d0 <main+0xb2>
     48a:	4685                	li	a3,1
     48c:	00f697b3          	sll	a5,a3,a5
     490:	400116b7          	lui	a3,0x40011
     494:	80f6a823          	sw	a5,-2032(a3) # 40010810 <__global_pointer$+0x2000ffa8>
     498:	03200513          	li	a0,50
     49c:	2d2020ef          	jal	ra,276e <Delay_Ms>
     4a0:	200007b7          	lui	a5,0x20000
     4a4:	00078713          	mv	a4,a5
     4a8:	9726                	add	a4,a4,s1
     4aa:	231c                	lbu	a5,0(a4)
     4ac:	471d                	li	a4,7
     4ae:	04f76e63          	bltu	a4,a5,50a <main+0xec>
     4b2:	4705                	li	a4,1
     4b4:	00f717b3          	sll	a5,a4,a5
     4b8:	40011737          	lui	a4,0x40011
     4bc:	80f72a23          	sw	a5,-2028(a4) # 40010814 <__global_pointer$+0x2000ffac>
     4c0:	03200513          	li	a0,50
     4c4:	0485                	addi	s1,s1,1
     4c6:	2a8020ef          	jal	ra,276e <Delay_Ms>
     4ca:	0ff4f493          	andi	s1,s1,255
     4ce:	bf51                	j	462 <main+0x44>
     4d0:	ff878613          	addi	a2,a5,-8 # 1ffffff8 <_data_lma+0x1fffc1b4>
     4d4:	0ff67613          	andi	a2,a2,255
     4d8:	00c6ea63          	bltu	a3,a2,4ec <main+0xce>
     4dc:	4685                	li	a3,1
     4de:	8b9d                	andi	a5,a5,7
     4e0:	00f697b3          	sll	a5,a3,a5
     4e4:	400116b7          	lui	a3,0x40011
     4e8:	ca9c                	sw	a5,16(a3)
     4ea:	b77d                	j	498 <main+0x7a>
     4ec:	ff078613          	addi	a2,a5,-16
     4f0:	0ff67613          	andi	a2,a2,255
     4f4:	fac6e2e3          	bltu	a3,a2,498 <main+0x7a>
     4f8:	4685                	li	a3,1
     4fa:	8b9d                	andi	a5,a5,7
     4fc:	00f697b3          	sll	a5,a3,a5
     500:	400116b7          	lui	a3,0x40011
     504:	40f6a823          	sw	a5,1040(a3) # 40011410 <__global_pointer$+0x20010ba8>
     508:	bf41                	j	498 <main+0x7a>
     50a:	ff878693          	addi	a3,a5,-8
     50e:	0ff6f693          	andi	a3,a3,255
     512:	00d76a63          	bltu	a4,a3,526 <main+0x108>
     516:	4705                	li	a4,1
     518:	8b9d                	andi	a5,a5,7
     51a:	00f717b3          	sll	a5,a4,a5
     51e:	40011737          	lui	a4,0x40011
     522:	cb5c                	sw	a5,20(a4)
     524:	bf71                	j	4c0 <main+0xa2>
     526:	ff078693          	addi	a3,a5,-16
     52a:	0ff6f693          	andi	a3,a3,255
     52e:	f8d769e3          	bltu	a4,a3,4c0 <main+0xa2>
     532:	4705                	li	a4,1
     534:	8b9d                	andi	a5,a5,7
     536:	00f717b3          	sll	a5,a4,a5
     53a:	40011737          	lui	a4,0x40011
     53e:	40f72a23          	sw	a5,1044(a4) # 40011414 <__global_pointer$+0x20010bac>
     542:	bfbd                	j	4c0 <main+0xa2>

00000544 <display_menu>:
     544:	b5dff2ef          	jal	t0,a0 <__riscv_save_0>
     548:	235010ef          	jal	ra,1f7c <ssd1306_clear>
     54c:	200007b7          	lui	a5,0x20000
     550:	06c7a503          	lw	a0,108(a5) # 2000006c <current_menu>
     554:	02000713          	li	a4,32
     558:	08000693          	li	a3,128
     55c:	00251793          	slli	a5,a0,0x2
     560:	650d                	lui	a0,0x3
     562:	7a850513          	addi	a0,a0,1960 # 37a8 <menus_bitmaps>
     566:	953e                	add	a0,a0,a5
     568:	4108                	lw	a0,0(a0)
     56a:	4785                	li	a5,1
     56c:	4601                	li	a2,0
     56e:	4581                	li	a1,0
     570:	25f010ef          	jal	ra,1fce <ssd1306_drawImage>
     574:	121010ef          	jal	ra,1e94 <ssd1306_refresh>
     578:	be0d                	j	aa <__riscv_restore_0>

0000057a <menus_move_down>:
     57a:	b27ff2ef          	jal	t0,a0 <__riscv_save_0>
     57e:	20000437          	lui	s0,0x20000
     582:	06c40413          	addi	s0,s0,108 # 2000006c <current_menu>
     586:	4008                	lw	a0,0(s0)
     588:	458d                	li	a1,3
     58a:	0505                	addi	a0,a0,1
     58c:	3e95                	jal	100 <__umodsi3>
     58e:	c008                	sw	a0,0(s0)
     590:	3f55                	jal	544 <display_menu>
     592:	be21                	j	aa <__riscv_restore_0>

00000594 <menus_move_up>:
     594:	b0dff2ef          	jal	t0,a0 <__riscv_save_0>
     598:	20000437          	lui	s0,0x20000
     59c:	06c40413          	addi	s0,s0,108 # 2000006c <current_menu>
     5a0:	4008                	lw	a0,0(s0)
     5a2:	458d                	li	a1,3
     5a4:	157d                	addi	a0,a0,-1
     5a6:	3ea9                	jal	100 <__umodsi3>
     5a8:	c008                	sw	a0,0(s0)
     5aa:	3f69                	jal	544 <display_menu>
     5ac:	bcfd                	j	aa <__riscv_restore_0>

000005ae <move_leds_options_down>:
     5ae:	af3ff2ef          	jal	t0,a0 <__riscv_save_0>
     5b2:	80c18413          	addi	s0,gp,-2036 # 20000074 <leds_speed>
     5b6:	4008                	lw	a0,0(s0)
     5b8:	458d                	li	a1,3
     5ba:	0505                	addi	a0,a0,1
     5bc:	3691                	jal	100 <__umodsi3>
     5be:	c008                	sw	a0,0(s0)
     5c0:	b4ed                	j	aa <__riscv_restore_0>

000005c2 <move_leds_options_up>:
     5c2:	adfff2ef          	jal	t0,a0 <__riscv_save_0>
     5c6:	80c18413          	addi	s0,gp,-2036 # 20000074 <leds_speed>
     5ca:	4008                	lw	a0,0(s0)
     5cc:	458d                	li	a1,3
     5ce:	157d                	addi	a0,a0,-1
     5d0:	3e05                	jal	100 <__umodsi3>
     5d2:	c008                	sw	a0,0(s0)
     5d4:	bcd9                	j	aa <__riscv_restore_0>

000005d6 <leds_control_menu>:
     5d6:	acbff2ef          	jal	t0,a0 <__riscv_save_0>
     5da:	1151                	addi	sp,sp,-12
     5dc:	1a1010ef          	jal	ra,1f7c <ssd1306_clear>
     5e0:	000032b7          	lui	t0,0x3
     5e4:	79428513          	addi	a0,t0,1940 # 3794 <epd_bitmap_menu_3+0x200>
     5e8:	4685                	li	a3,1
     5ea:	4601                	li	a2,0
     5ec:	4581                	li	a1,0
     5ee:	3cd010ef          	jal	ra,21ba <ssd1306_drawstr>
     5f2:	00003337          	lui	t1,0x3
     5f6:	79c30513          	addi	a0,t1,1948 # 379c <epd_bitmap_menu_3+0x208>
     5fa:	4685                	li	a3,1
     5fc:	4601                	li	a2,0
     5fe:	03800593          	li	a1,56
     602:	3b9010ef          	jal	ra,21ba <ssd1306_drawstr>
     606:	00003737          	lui	a4,0x3
     60a:	7a070513          	addi	a0,a4,1952 # 37a0 <epd_bitmap_menu_3+0x20c>
     60e:	4685                	li	a3,1
     610:	4601                	li	a2,0
     612:	05800593          	li	a1,88
     616:	3a5010ef          	jal	ra,21ba <ssd1306_drawstr>
     61a:	80c1a683          	lw	a3,-2036(gp) # 20000074 <leds_speed>
     61e:	200004b7          	lui	s1,0x20000
     622:	00c48793          	addi	a5,s1,12 # 2000000c <leds_options>
     626:	068a                	slli	a3,a3,0x2
     628:	97b6                	add	a5,a5,a3
     62a:	4388                	lw	a0,0(a5)
     62c:	4685                	li	a3,1
     62e:	4641                	li	a2,16
     630:	03000593          	li	a1,48
     634:	387010ef          	jal	ra,21ba <ssd1306_drawstr>
     638:	05d010ef          	jal	ra,1e94 <ssd1306_refresh>
     63c:	000032b7          	lui	t0,0x3
     640:	00003337          	lui	t1,0x3
     644:	00003737          	lui	a4,0x3
     648:	c016                	sw	t0,0(sp)
     64a:	c21a                	sw	t1,4(sp)
     64c:	c43a                	sw	a4,8(sp)
     64e:	00c48493          	addi	s1,s1,12
     652:	80c18413          	addi	s0,gp,-2036 # 20000074 <leds_speed>
     656:	31c9                	jal	318 <joy_left_pressed>
     658:	0c051f63          	bnez	a0,736 <leds_control_menu+0x160>
     65c:	3969                	jal	2f6 <joy_up_pressed>
     65e:	c13d                	beqz	a0,6c4 <leds_control_menu+0xee>
     660:	378d                	jal	5c2 <move_leds_options_up>
     662:	11b010ef          	jal	ra,1f7c <ssd1306_clear>
     666:	4782                	lw	a5,0(sp)
     668:	4685                	li	a3,1
     66a:	4601                	li	a2,0
     66c:	79478513          	addi	a0,a5,1940
     670:	4581                	li	a1,0
     672:	349010ef          	jal	ra,21ba <ssd1306_drawstr>
     676:	4792                	lw	a5,4(sp)
     678:	4685                	li	a3,1
     67a:	4601                	li	a2,0
     67c:	79c78513          	addi	a0,a5,1948
     680:	03800593          	li	a1,56
     684:	337010ef          	jal	ra,21ba <ssd1306_drawstr>
     688:	47a2                	lw	a5,8(sp)
     68a:	4685                	li	a3,1
     68c:	4601                	li	a2,0
     68e:	7a078513          	addi	a0,a5,1952
     692:	05800593          	li	a1,88
     696:	325010ef          	jal	ra,21ba <ssd1306_drawstr>
     69a:	401c                	lw	a5,0(s0)
     69c:	4685                	li	a3,1
     69e:	4641                	li	a2,16
     6a0:	078a                	slli	a5,a5,0x2
     6a2:	97a6                	add	a5,a5,s1
     6a4:	4388                	lw	a0,0(a5)
     6a6:	03000593          	li	a1,48
     6aa:	311010ef          	jal	ra,21ba <ssd1306_drawstr>
     6ae:	7e6010ef          	jal	ra,1e94 <ssd1306_refresh>
     6b2:	4018                	lw	a4,0(s0)
     6b4:	200007b7          	lui	a5,0x20000
     6b8:	01878793          	addi	a5,a5,24 # 20000018 <leds_speeds>
     6bc:	97ba                	add	a5,a5,a4
     6be:	239c                	lbu	a5,0(a5)
     6c0:	80f18823          	sb	a5,-2032(gp) # 20000078 <refrese_rate_s>
     6c4:	3189                	jal	306 <joy_down_pressed>
     6c6:	c13d                	beqz	a0,72c <leds_control_menu+0x156>
     6c8:	35dd                	jal	5ae <move_leds_options_down>
     6ca:	0b3010ef          	jal	ra,1f7c <ssd1306_clear>
     6ce:	4782                	lw	a5,0(sp)
     6d0:	4685                	li	a3,1
     6d2:	4601                	li	a2,0
     6d4:	79478513          	addi	a0,a5,1940
     6d8:	4581                	li	a1,0
     6da:	2e1010ef          	jal	ra,21ba <ssd1306_drawstr>
     6de:	4792                	lw	a5,4(sp)
     6e0:	4685                	li	a3,1
     6e2:	4601                	li	a2,0
     6e4:	79c78513          	addi	a0,a5,1948
     6e8:	03800593          	li	a1,56
     6ec:	2cf010ef          	jal	ra,21ba <ssd1306_drawstr>
     6f0:	47a2                	lw	a5,8(sp)
     6f2:	4685                	li	a3,1
     6f4:	4601                	li	a2,0
     6f6:	7a078513          	addi	a0,a5,1952
     6fa:	05800593          	li	a1,88
     6fe:	2bd010ef          	jal	ra,21ba <ssd1306_drawstr>
     702:	401c                	lw	a5,0(s0)
     704:	4685                	li	a3,1
     706:	4641                	li	a2,16
     708:	078a                	slli	a5,a5,0x2
     70a:	97a6                	add	a5,a5,s1
     70c:	4388                	lw	a0,0(a5)
     70e:	03000593          	li	a1,48
     712:	2a9010ef          	jal	ra,21ba <ssd1306_drawstr>
     716:	77e010ef          	jal	ra,1e94 <ssd1306_refresh>
     71a:	4018                	lw	a4,0(s0)
     71c:	200007b7          	lui	a5,0x20000
     720:	01878793          	addi	a5,a5,24 # 20000018 <leds_speeds>
     724:	97ba                	add	a5,a5,a4
     726:	239c                	lbu	a5,0(a5)
     728:	80f18823          	sb	a5,-2032(gp) # 20000078 <refrese_rate_s>
     72c:	06400513          	li	a0,100
     730:	03e020ef          	jal	ra,276e <Delay_Ms>
     734:	b70d                	j	656 <leds_control_menu+0x80>
     736:	0131                	addi	sp,sp,12
     738:	ba8d                	j	aa <__riscv_restore_0>

0000073a <leds_control_handler>:
     73a:	80c1a703          	lw	a4,-2036(gp) # 20000074 <leds_speed>
     73e:	4789                	li	a5,2
     740:	06f71663          	bne	a4,a5,7ac <leds_control_handler+0x72>
     744:	200007b7          	lui	a5,0x20000
     748:	0087c303          	lbu	t1,8(a5) # 20000008 <leds_count>
     74c:	200006b7          	lui	a3,0x20000
     750:	4701                	li	a4,0
     752:	00068693          	mv	a3,a3
     756:	461d                	li	a2,7
     758:	4585                	li	a1,1
     75a:	40011537          	lui	a0,0x40011
     75e:	0ff77793          	andi	a5,a4,255
     762:	0067e363          	bltu	a5,t1,768 <leds_control_handler+0x2e>
     766:	8082                	ret
     768:	00d707b3          	add	a5,a4,a3
     76c:	239c                	lbu	a5,0(a5)
     76e:	00f66863          	bltu	a2,a5,77e <leds_control_handler+0x44>
     772:	00f597b3          	sll	a5,a1,a5
     776:	80f52a23          	sw	a5,-2028(a0) # 40010814 <__global_pointer$+0x2000ffac>
     77a:	0705                	addi	a4,a4,1
     77c:	b7cd                	j	75e <leds_control_handler+0x24>
     77e:	ff878293          	addi	t0,a5,-8
     782:	0ff2f293          	andi	t0,t0,255
     786:	00566763          	bltu	a2,t0,794 <leds_control_handler+0x5a>
     78a:	8b9d                	andi	a5,a5,7
     78c:	00f597b3          	sll	a5,a1,a5
     790:	c95c                	sw	a5,20(a0)
     792:	b7e5                	j	77a <leds_control_handler+0x40>
     794:	ff078293          	addi	t0,a5,-16
     798:	0ff2f293          	andi	t0,t0,255
     79c:	fc566fe3          	bltu	a2,t0,77a <leds_control_handler+0x40>
     7a0:	8b9d                	andi	a5,a5,7
     7a2:	00f597b3          	sll	a5,a1,a5
     7a6:	40f52a23          	sw	a5,1044(a0)
     7aa:	bfc1                	j	77a <leds_control_handler+0x40>
     7ac:	8f5ff2ef          	jal	t0,a0 <__riscv_save_0>
     7b0:	8081c683          	lbu	a3,-2040(gp) # 20000070 <led_index.4509>
     7b4:	200007b7          	lui	a5,0x20000
     7b8:	00078713          	mv	a4,a5
     7bc:	80818413          	addi	s0,gp,-2040 # 20000070 <led_index.4509>
     7c0:	e2fd                	bnez	a3,8a6 <leds_control_handler+0x16c>
     7c2:	0007c783          	lbu	a5,0(a5) # 20000000 <_data_vma>
     7c6:	469d                	li	a3,7
     7c8:	04f6ef63          	bltu	a3,a5,826 <leds_control_handler+0xec>
     7cc:	4685                	li	a3,1
     7ce:	00f697b3          	sll	a5,a3,a5
     7d2:	400116b7          	lui	a3,0x40011
     7d6:	80f6a823          	sw	a5,-2032(a3) # 40010810 <__global_pointer$+0x2000ffa8>
     7da:	200007b7          	lui	a5,0x20000
     7de:	0087c303          	lbu	t1,8(a5) # 20000008 <leds_count>
     7e2:	4685                	li	a3,1
     7e4:	461d                	li	a2,7
     7e6:	4585                	li	a1,1
     7e8:	40011537          	lui	a0,0x40011
     7ec:	0666ea63          	bltu	a3,t1,860 <leds_control_handler+0x126>
     7f0:	20000737          	lui	a4,0x20000
     7f4:	06870713          	addi	a4,a4,104 # 20000068 <_edata>
     7f8:	231c                	lbu	a5,0(a4)
     7fa:	8101c683          	lbu	a3,-2032(gp) # 20000078 <refrese_rate_s>
     7fe:	0785                	addi	a5,a5,1
     800:	0ff7f793          	andi	a5,a5,255
     804:	a31c                	sb	a5,0(a4)
     806:	00f69e63          	bne	a3,a5,822 <leds_control_handler+0xe8>
     80a:	200007b7          	lui	a5,0x20000
     80e:	2008                	lbu	a0,0(s0)
     810:	0087c583          	lbu	a1,8(a5) # 20000008 <leds_count>
     814:	00070023          	sb	zero,0(a4)
     818:	0505                	addi	a0,a0,1
     81a:	0585                	addi	a1,a1,1
     81c:	909ff0ef          	jal	ra,124 <__modsi3>
     820:	a008                	sb	a0,0(s0)
     822:	889ff06f          	j	aa <__riscv_restore_0>
     826:	ff878613          	addi	a2,a5,-8
     82a:	0ff67613          	andi	a2,a2,255
     82e:	00c6ea63          	bltu	a3,a2,842 <leds_control_handler+0x108>
     832:	4685                	li	a3,1
     834:	8b9d                	andi	a5,a5,7
     836:	00f697b3          	sll	a5,a3,a5
     83a:	400116b7          	lui	a3,0x40011
     83e:	ca9c                	sw	a5,16(a3)
     840:	bf69                	j	7da <leds_control_handler+0xa0>
     842:	ff078613          	addi	a2,a5,-16
     846:	0ff67613          	andi	a2,a2,255
     84a:	f8c6e8e3          	bltu	a3,a2,7da <leds_control_handler+0xa0>
     84e:	4685                	li	a3,1
     850:	8b9d                	andi	a5,a5,7
     852:	00f697b3          	sll	a5,a3,a5
     856:	400116b7          	lui	a3,0x40011
     85a:	40f6a823          	sw	a5,1040(a3) # 40011410 <__global_pointer$+0x20010ba8>
     85e:	bfb5                	j	7da <leds_control_handler+0xa0>
     860:	331c                	lbu	a5,1(a4)
     862:	00f66b63          	bltu	a2,a5,878 <leds_control_handler+0x13e>
     866:	00f597b3          	sll	a5,a1,a5
     86a:	80f52a23          	sw	a5,-2028(a0) # 40010814 <__global_pointer$+0x2000ffac>
     86e:	0685                	addi	a3,a3,1
     870:	0ff6f693          	andi	a3,a3,255
     874:	0705                	addi	a4,a4,1
     876:	bf9d                	j	7ec <leds_control_handler+0xb2>
     878:	ff878293          	addi	t0,a5,-8
     87c:	0ff2f293          	andi	t0,t0,255
     880:	00566763          	bltu	a2,t0,88e <leds_control_handler+0x154>
     884:	8b9d                	andi	a5,a5,7
     886:	00f597b3          	sll	a5,a1,a5
     88a:	c95c                	sw	a5,20(a0)
     88c:	b7cd                	j	86e <leds_control_handler+0x134>
     88e:	ff078293          	addi	t0,a5,-16
     892:	0ff2f293          	andi	t0,t0,255
     896:	fc566ce3          	bltu	a2,t0,86e <leds_control_handler+0x134>
     89a:	8b9d                	andi	a5,a5,7
     89c:	00f597b3          	sll	a5,a1,a5
     8a0:	40f52a23          	sw	a5,1044(a0)
     8a4:	b7e9                	j	86e <leds_control_handler+0x134>
     8a6:	00d707b3          	add	a5,a4,a3
     8aa:	fff7c783          	lbu	a5,-1(a5)
     8ae:	461d                	li	a2,7
     8b0:	02f66663          	bltu	a2,a5,8dc <leds_control_handler+0x1a2>
     8b4:	4605                	li	a2,1
     8b6:	00f617b3          	sll	a5,a2,a5
     8ba:	40011637          	lui	a2,0x40011
     8be:	80f62a23          	sw	a5,-2028(a2) # 40010814 <__global_pointer$+0x2000ffac>
     8c2:	9736                	add	a4,a4,a3
     8c4:	231c                	lbu	a5,0(a4)
     8c6:	471d                	li	a4,7
     8c8:	04f76763          	bltu	a4,a5,916 <leds_control_handler+0x1dc>
     8cc:	4705                	li	a4,1
     8ce:	00f717b3          	sll	a5,a4,a5
     8d2:	40011737          	lui	a4,0x40011
     8d6:	80f72823          	sw	a5,-2032(a4) # 40010810 <__global_pointer$+0x2000ffa8>
     8da:	bf19                	j	7f0 <leds_control_handler+0xb6>
     8dc:	ff878593          	addi	a1,a5,-8
     8e0:	0ff5f593          	andi	a1,a1,255
     8e4:	00b66a63          	bltu	a2,a1,8f8 <leds_control_handler+0x1be>
     8e8:	4605                	li	a2,1
     8ea:	8b9d                	andi	a5,a5,7
     8ec:	00f617b3          	sll	a5,a2,a5
     8f0:	40011637          	lui	a2,0x40011
     8f4:	ca5c                	sw	a5,20(a2)
     8f6:	b7f1                	j	8c2 <leds_control_handler+0x188>
     8f8:	ff078593          	addi	a1,a5,-16
     8fc:	0ff5f593          	andi	a1,a1,255
     900:	fcb661e3          	bltu	a2,a1,8c2 <leds_control_handler+0x188>
     904:	4605                	li	a2,1
     906:	8b9d                	andi	a5,a5,7
     908:	00f617b3          	sll	a5,a2,a5
     90c:	40011637          	lui	a2,0x40011
     910:	40f62a23          	sw	a5,1044(a2) # 40011414 <__global_pointer$+0x20010bac>
     914:	b77d                	j	8c2 <leds_control_handler+0x188>
     916:	ff878693          	addi	a3,a5,-8
     91a:	0ff6f693          	andi	a3,a3,255
     91e:	00d76a63          	bltu	a4,a3,932 <leds_control_handler+0x1f8>
     922:	4705                	li	a4,1
     924:	8b9d                	andi	a5,a5,7
     926:	00f717b3          	sll	a5,a4,a5
     92a:	40011737          	lui	a4,0x40011
     92e:	cb1c                	sw	a5,16(a4)
     930:	b5c1                	j	7f0 <leds_control_handler+0xb6>
     932:	ff078693          	addi	a3,a5,-16
     936:	0ff6f693          	andi	a3,a3,255
     93a:	ead76be3          	bltu	a4,a3,7f0 <leds_control_handler+0xb6>
     93e:	4705                	li	a4,1
     940:	8b9d                	andi	a5,a5,7
     942:	00f717b3          	sll	a5,a4,a5
     946:	40011737          	lui	a4,0x40011
     94a:	40f72823          	sw	a5,1040(a4) # 40011410 <__global_pointer$+0x20010ba8>
     94e:	b54d                	j	7f0 <leds_control_handler+0xb6>

00000950 <display_credits>:
     950:	f50ff2ef          	jal	t0,a0 <__riscv_save_0>
     954:	628010ef          	jal	ra,1f7c <ssd1306_clear>
     958:	00003537          	lui	a0,0x3
     95c:	4685                	li	a3,1
     95e:	4601                	li	a2,0
     960:	4581                	li	a1,0
     962:	15050513          	addi	a0,a0,336 # 3150 <epd_bitmap_logo+0x200>
     966:	055010ef          	jal	ra,21ba <ssd1306_drawstr>
     96a:	00003537          	lui	a0,0x3
     96e:	4685                	li	a3,1
     970:	4601                	li	a2,0
     972:	05000593          	li	a1,80
     976:	15c50513          	addi	a0,a0,348 # 315c <epd_bitmap_logo+0x20c>
     97a:	041010ef          	jal	ra,21ba <ssd1306_drawstr>
     97e:	00003537          	lui	a0,0x3
     982:	4685                	li	a3,1
     984:	4621                	li	a2,8
     986:	4581                	li	a1,0
     988:	16450513          	addi	a0,a0,356 # 3164 <epd_bitmap_logo+0x214>
     98c:	02f010ef          	jal	ra,21ba <ssd1306_drawstr>
     990:	00003537          	lui	a0,0x3
     994:	4685                	li	a3,1
     996:	4621                	li	a2,8
     998:	02800593          	li	a1,40
     99c:	16c50513          	addi	a0,a0,364 # 316c <epd_bitmap_logo+0x21c>
     9a0:	01b010ef          	jal	ra,21ba <ssd1306_drawstr>
     9a4:	00003537          	lui	a0,0x3
     9a8:	4685                	li	a3,1
     9aa:	4621                	li	a2,8
     9ac:	05000593          	li	a1,80
     9b0:	17450513          	addi	a0,a0,372 # 3174 <epd_bitmap_logo+0x224>
     9b4:	007010ef          	jal	ra,21ba <ssd1306_drawstr>
     9b8:	00003537          	lui	a0,0x3
     9bc:	4685                	li	a3,1
     9be:	4641                	li	a2,16
     9c0:	4581                	li	a1,0
     9c2:	17c50513          	addi	a0,a0,380 # 317c <epd_bitmap_logo+0x22c>
     9c6:	7f4010ef          	jal	ra,21ba <ssd1306_drawstr>
     9ca:	00003537          	lui	a0,0x3
     9ce:	4685                	li	a3,1
     9d0:	4641                	li	a2,16
     9d2:	45e1                	li	a1,24
     9d4:	18050513          	addi	a0,a0,384 # 3180 <epd_bitmap_logo+0x230>
     9d8:	7e2010ef          	jal	ra,21ba <ssd1306_drawstr>
     9dc:	00003537          	lui	a0,0x3
     9e0:	4685                	li	a3,1
     9e2:	4661                	li	a2,24
     9e4:	4581                	li	a1,0
     9e6:	18c50513          	addi	a0,a0,396 # 318c <epd_bitmap_logo+0x23c>
     9ea:	7d0010ef          	jal	ra,21ba <ssd1306_drawstr>
     9ee:	4a6010ef          	jal	ra,1e94 <ssd1306_refresh>
     9f2:	eb8ff06f          	j	aa <__riscv_restore_0>

000009f6 <menus_init>:
     9f6:	eaaff2ef          	jal	t0,a0 <__riscv_save_0>
     9fa:	36a9                	jal	544 <display_menu>
     9fc:	80c1a703          	lw	a4,-2036(gp) # 20000074 <leds_speed>
     a00:	200007b7          	lui	a5,0x20000
     a04:	01878793          	addi	a5,a5,24 # 20000018 <leds_speeds>
     a08:	97ba                	add	a5,a5,a4
     a0a:	2398                	lbu	a4,0(a5)
     a0c:	20000437          	lui	s0,0x20000
     a10:	80e18823          	sb	a4,-2032(gp) # 20000078 <refrese_rate_s>
     a14:	06940713          	addi	a4,s0,105 # 20000069 <counter.4518>
     a18:	231c                	lbu	a5,0(a4)
     a1a:	06940493          	addi	s1,s0,105
     a1e:	0785                	addi	a5,a5,1
     a20:	a31c                	sb	a5,0(a4)
     a22:	8d5ff0ef          	jal	ra,2f6 <joy_up_pressed>
     a26:	c909                	beqz	a0,a38 <menus_init+0x42>
     a28:	2098                	lbu	a4,0(s1)
     a2a:	0c800793          	li	a5,200
     a2e:	00e7f563          	bgeu	a5,a4,a38 <menus_init+0x42>
     a32:	368d                	jal	594 <menus_move_up>
     a34:	00048023          	sb	zero,0(s1)
     a38:	8cfff0ef          	jal	ra,306 <joy_down_pressed>
     a3c:	c909                	beqz	a0,a4e <menus_init+0x58>
     a3e:	2098                	lbu	a4,0(s1)
     a40:	0c800793          	li	a5,200
     a44:	00e7f563          	bgeu	a5,a4,a4e <menus_init+0x58>
     a48:	3e0d                	jal	57a <menus_move_down>
     a4a:	00048023          	sb	zero,0(s1)
     a4e:	8dbff0ef          	jal	ra,328 <joy_right_pressed>
     a52:	c121                	beqz	a0,a92 <menus_init+0x9c>
     a54:	200007b7          	lui	a5,0x20000
     a58:	0087c303          	lbu	t1,8(a5) # 20000008 <leds_count>
     a5c:	200006b7          	lui	a3,0x20000
     a60:	00068693          	mv	a3,a3
     a64:	4705                	li	a4,1
     a66:	461d                	li	a2,7
     a68:	4585                	li	a1,1
     a6a:	40011537          	lui	a0,0x40011
     a6e:	02676763          	bltu	a4,t1,a9c <menus_init+0xa6>
     a72:	200007b7          	lui	a5,0x20000
     a76:	06c7a783          	lw	a5,108(a5) # 2000006c <current_menu>
     a7a:	4705                	li	a4,1
     a7c:	06e78663          	beq	a5,a4,ae8 <menus_init+0xf2>
     a80:	c3ad                	beqz	a5,ae2 <menus_init+0xec>
     a82:	4709                	li	a4,2
     a84:	06e78463          	beq	a5,a4,aec <menus_init+0xf6>
     a88:	3c75                	jal	544 <display_menu>
     a8a:	06400513          	li	a0,100
     a8e:	4e1010ef          	jal	ra,276e <Delay_Ms>
     a92:	4505                	li	a0,1
     a94:	4db010ef          	jal	ra,276e <Delay_Ms>
     a98:	314d                	jal	73a <leds_control_handler>
     a9a:	bfad                	j	a14 <menus_init+0x1e>
     a9c:	329c                	lbu	a5,1(a3)
     a9e:	00f66b63          	bltu	a2,a5,ab4 <menus_init+0xbe>
     aa2:	00f597b3          	sll	a5,a1,a5
     aa6:	80f52a23          	sw	a5,-2028(a0) # 40010814 <__global_pointer$+0x2000ffac>
     aaa:	0705                	addi	a4,a4,1
     aac:	0ff77713          	andi	a4,a4,255
     ab0:	0685                	addi	a3,a3,1
     ab2:	bf75                	j	a6e <menus_init+0x78>
     ab4:	ff878293          	addi	t0,a5,-8
     ab8:	0ff2f293          	andi	t0,t0,255
     abc:	00566763          	bltu	a2,t0,aca <menus_init+0xd4>
     ac0:	8b9d                	andi	a5,a5,7
     ac2:	00f597b3          	sll	a5,a1,a5
     ac6:	c95c                	sw	a5,20(a0)
     ac8:	b7cd                	j	aaa <menus_init+0xb4>
     aca:	ff078293          	addi	t0,a5,-16
     ace:	0ff2f293          	andi	t0,t0,255
     ad2:	fc566ce3          	bltu	a2,t0,aaa <menus_init+0xb4>
     ad6:	8b9d                	andi	a5,a5,7
     ad8:	00f597b3          	sll	a5,a1,a5
     adc:	40f52a23          	sw	a5,1044(a0)
     ae0:	b7e9                	j	aaa <menus_init+0xb4>
     ae2:	1ea010ef          	jal	ra,1ccc <tetris_start>
     ae6:	b74d                	j	a88 <menus_init+0x92>
     ae8:	34fd                	jal	5d6 <leds_control_menu>
     aea:	bf79                	j	a88 <menus_init+0x92>
     aec:	3595                	jal	950 <display_credits>
     aee:	82bff0ef          	jal	ra,318 <joy_left_pressed>
     af2:	dd75                	beqz	a0,aee <menus_init+0xf8>
     af4:	bf51                	j	a88 <menus_init+0x92>

00000af6 <OLED_init>:
     af6:	daaff2ef          	jal	t0,a0 <__riscv_save_0>
     afa:	863ff0ef          	jal	ra,35c <I2C_init>
     afe:	07800513          	li	a0,120
     b02:	8a1ff0ef          	jal	ra,3a2 <I2C_start>
     b06:	4501                	li	a0,0
     b08:	648d                	lui	s1,0x3
     b0a:	8e3ff0ef          	jal	ra,3ec <I2C_write>
     b0e:	4401                	li	s0,0
     b10:	7c848493          	addi	s1,s1,1992 # 37c8 <OLED_INIT_CMD>
     b14:	008487b3          	add	a5,s1,s0
     b18:	2388                	lbu	a0,0(a5)
     b1a:	0405                	addi	s0,s0,1
     b1c:	8d1ff0ef          	jal	ra,3ec <I2C_write>
     b20:	47c5                	li	a5,17
     b22:	fef419e3          	bne	s0,a5,b14 <OLED_init+0x1e>
     b26:	8dfff0ef          	jal	ra,404 <I2C_stop>
     b2a:	d80ff06f          	j	aa <__riscv_restore_0>

00000b2e <OLED_data_start>:
     b2e:	d72ff2ef          	jal	t0,a0 <__riscv_save_0>
     b32:	07800513          	li	a0,120
     b36:	86dff0ef          	jal	ra,3a2 <I2C_start>
     b3a:	04000513          	li	a0,64
     b3e:	8afff0ef          	jal	ra,3ec <I2C_write>
     b42:	d68ff06f          	j	aa <__riscv_restore_0>

00000b46 <OLED_setpos>:
     b46:	d5aff2ef          	jal	t0,a0 <__riscv_save_0>
     b4a:	1171                	addi	sp,sp,-4
     b4c:	842a                	mv	s0,a0
     b4e:	07800513          	li	a0,120
     b52:	c02e                	sw	a1,0(sp)
     b54:	84fff0ef          	jal	ra,3a2 <I2C_start>
     b58:	4501                	li	a0,0
     b5a:	893ff0ef          	jal	ra,3ec <I2C_write>
     b5e:	4582                	lw	a1,0(sp)
     b60:	0b05e513          	ori	a0,a1,176
     b64:	889ff0ef          	jal	ra,3ec <I2C_write>
     b68:	00f47513          	andi	a0,s0,15
     b6c:	881ff0ef          	jal	ra,3ec <I2C_write>
     b70:	00445513          	srli	a0,s0,0x4
     b74:	01056513          	ori	a0,a0,16
     b78:	875ff0ef          	jal	ra,3ec <I2C_write>
     b7c:	889ff0ef          	jal	ra,404 <I2C_stop>
     b80:	0111                	addi	sp,sp,4
     b82:	d28ff06f          	j	aa <__riscv_restore_0>

00000b86 <SystemInit>:
     b86:	d1aff2ef          	jal	t0,a0 <__riscv_save_0>
     b8a:	40021437          	lui	s0,0x40021
     b8e:	401c                	lw	a5,0(s0)
     b90:	f8ff0737          	lui	a4,0xf8ff0
     b94:	4541                	li	a0,16
     b96:	0017e793          	ori	a5,a5,1
     b9a:	c01c                	sw	a5,0(s0)
     b9c:	405c                	lw	a5,4(s0)
     b9e:	8ff9                	and	a5,a5,a4
     ba0:	c05c                	sw	a5,4(s0)
     ba2:	401c                	lw	a5,0(s0)
     ba4:	fef70737          	lui	a4,0xfef70
     ba8:	177d                	addi	a4,a4,-1
     baa:	8ff9                	and	a5,a5,a4
     bac:	c01c                	sw	a5,0(s0)
     bae:	401c                	lw	a5,0(s0)
     bb0:	fffc0737          	lui	a4,0xfffc0
     bb4:	177d                	addi	a4,a4,-1
     bb6:	8ff9                	and	a5,a5,a4
     bb8:	c01c                	sw	a5,0(s0)
     bba:	405c                	lw	a5,4(s0)
     bbc:	7741                	lui	a4,0xffff0
     bbe:	177d                	addi	a4,a4,-1
     bc0:	8ff9                	and	a5,a5,a4
     bc2:	c05c                	sw	a5,4(s0)
     bc4:	009f07b7          	lui	a5,0x9f0
     bc8:	c41c                	sw	a5,8(s0)
     bca:	1a9010ef          	jal	ra,2572 <RCC_AdjustHSICalibrationValue>
     bce:	4c1c                	lw	a5,24(s0)
     bd0:	0207e793          	ori	a5,a5,32
     bd4:	cc1c                	sw	a5,24(s0)
     bd6:	400117b7          	lui	a5,0x40011
     bda:	4007a703          	lw	a4,1024(a5) # 40011400 <__global_pointer$+0x20010b98>
     bde:	40078693          	addi	a3,a5,1024
     be2:	f0f77713          	andi	a4,a4,-241
     be6:	40e7a023          	sw	a4,1024(a5)
     bea:	4007a703          	lw	a4,1024(a5)
     bee:	08076713          	ori	a4,a4,128
     bf2:	40e7a023          	sw	a4,1024(a5)
     bf6:	4789                	li	a5,2
     bf8:	ca9c                	sw	a5,16(a3)
     bfa:	1ffff7b7          	lui	a5,0x1ffff
     bfe:	7d47c503          	lbu	a0,2004(a5) # 1ffff7d4 <_data_lma+0x1fffb990>
     c02:	0ff00793          	li	a5,255
     c06:	00f50563          	beq	a0,a5,c10 <SystemInit+0x8a>
     c0a:	897d                	andi	a0,a0,31
     c0c:	167010ef          	jal	ra,2572 <RCC_AdjustHSICalibrationValue>
     c10:	400227b7          	lui	a5,0x40022
     c14:	4398                	lw	a4,0(a5)
     c16:	76c1                	lui	a3,0xffff0
     c18:	16fd                	addi	a3,a3,-1
     c1a:	9b71                	andi	a4,a4,-4
     c1c:	c398                	sw	a4,0(a5)
     c1e:	4398                	lw	a4,0(a5)
     c20:	00176713          	ori	a4,a4,1
     c24:	c398                	sw	a4,0(a5)
     c26:	400217b7          	lui	a5,0x40021
     c2a:	43d8                	lw	a4,4(a5)
     c2c:	c3d8                	sw	a4,4(a5)
     c2e:	43d8                	lw	a4,4(a5)
     c30:	8f75                	and	a4,a4,a3
     c32:	c3d8                	sw	a4,4(a5)
     c34:	43d8                	lw	a4,4(a5)
     c36:	010006b7          	lui	a3,0x1000
     c3a:	c3d8                	sw	a4,4(a5)
     c3c:	4398                	lw	a4,0(a5)
     c3e:	8f55                	or	a4,a4,a3
     c40:	c398                	sw	a4,0(a5)
     c42:	4398                	lw	a4,0(a5)
     c44:	00671693          	slli	a3,a4,0x6
     c48:	fe06dde3          	bgez	a3,c42 <SystemInit+0xbc>
     c4c:	43d8                	lw	a4,4(a5)
     c4e:	400216b7          	lui	a3,0x40021
     c52:	9b71                	andi	a4,a4,-4
     c54:	c3d8                	sw	a4,4(a5)
     c56:	43d8                	lw	a4,4(a5)
     c58:	00276713          	ori	a4,a4,2
     c5c:	c3d8                	sw	a4,4(a5)
     c5e:	4721                	li	a4,8
     c60:	42dc                	lw	a5,4(a3)
     c62:	8bb1                	andi	a5,a5,12
     c64:	fee79ee3          	bne	a5,a4,c60 <SystemInit+0xda>
     c68:	c42ff06f          	j	aa <__riscv_restore_0>

00000c6c <SystemCoreClockUpdate>:
     c6c:	c34ff2ef          	jal	t0,a0 <__riscv_save_0>
     c70:	40021737          	lui	a4,0x40021
     c74:	435c                	lw	a5,4(a4)
     c76:	20000437          	lui	s0,0x20000
     c7a:	4691                	li	a3,4
     c7c:	8bb1                	andi	a5,a5,12
     c7e:	02c40413          	addi	s0,s0,44 # 2000002c <SystemCoreClock>
     c82:	00d78563          	beq	a5,a3,c8c <SystemCoreClockUpdate+0x20>
     c86:	46a1                	li	a3,8
     c88:	04d78263          	beq	a5,a3,ccc <SystemCoreClockUpdate+0x60>
     c8c:	016e37b7          	lui	a5,0x16e3
     c90:	60078793          	addi	a5,a5,1536 # 16e3600 <_data_lma+0x16df7bc>
     c94:	c01c                	sw	a5,0(s0)
     c96:	400216b7          	lui	a3,0x40021
     c9a:	42dc                	lw	a5,4(a3)
     c9c:	4008                	lw	a0,0(s0)
     c9e:	8391                	srli	a5,a5,0x4
     ca0:	00f7f713          	andi	a4,a5,15
     ca4:	200007b7          	lui	a5,0x20000
     ca8:	01c78793          	addi	a5,a5,28 # 2000001c <AHBPrescTable>
     cac:	97ba                	add	a5,a5,a4
     cae:	238c                	lbu	a1,0(a5)
     cb0:	42dc                	lw	a5,4(a3)
     cb2:	0ff5f593          	andi	a1,a1,255
     cb6:	0807f793          	andi	a5,a5,128
     cba:	00b55733          	srl	a4,a0,a1
     cbe:	e781                	bnez	a5,cc6 <SystemCoreClockUpdate+0x5a>
     cc0:	c14ff0ef          	jal	ra,d4 <__udivsi3>
     cc4:	872a                	mv	a4,a0
     cc6:	c018                	sw	a4,0(s0)
     cc8:	be2ff06f          	j	aa <__riscv_restore_0>
     ccc:	435c                	lw	a5,4(a4)
     cce:	02dc77b7          	lui	a5,0x2dc7
     cd2:	c0078793          	addi	a5,a5,-1024 # 2dc6c00 <_data_lma+0x2dc2dbc>
     cd6:	bf7d                	j	c94 <SystemCoreClockUpdate+0x28>

00000cd8 <PSEUDO_RND_TTRIS>:
     cd8:	8691c703          	lbu	a4,-1943(gp) # 200000d1 <RND_VAR_TTRIS>
     cdc:	4695                	li	a3,5
     cde:	86918793          	addi	a5,gp,-1943 # 200000d1 <RND_VAR_TTRIS>
     ce2:	4501                	li	a0,0
     ce4:	00e6e563          	bltu	a3,a4,cee <PSEUDO_RND_TTRIS+0x16>
     ce8:	0705                	addi	a4,a4,1
     cea:	0ff77513          	andi	a0,a4,255
     cee:	a388                	sb	a0,0(a5)
     cf0:	8082                	ret

00000cf2 <Game_Play_TTRIS>:
     cf2:	baeff2ef          	jal	t0,a0 <__riscv_save_0>
     cf6:	8401d503          	lhu	a0,-1984(gp) # 200000a8 <Nb_of_line_F_TTRIS>
     cfa:	45d1                	li	a1,20
     cfc:	bd8ff0ef          	jal	ra,d4 <__udivsi3>
     d00:	83e1c703          	lbu	a4,-1986(gp) # 200000a6 <Level_TTRIS>
     d04:	0ff57513          	andi	a0,a0,255
     d08:	83e18793          	addi	a5,gp,-1986 # 200000a6 <Level_TTRIS>
     d0c:	00a70363          	beq	a4,a0,d12 <Game_Play_TTRIS+0x20>
     d10:	a388                	sb	a0,0(a5)
     d12:	2388                	lbu	a0,0(a5)
     d14:	47d1                	li	a5,20
     d16:	00a7ea63          	bltu	a5,a0,d2a <Game_Play_TTRIS+0x38>
     d1a:	4705                	li	a4,1
     d1c:	46ad                	li	a3,11
     d1e:	4651                	li	a2,20
     d20:	4581                	li	a1,0
     d22:	e16ff0ef          	jal	ra,338 <map>
     d26:	82a18ea3          	sb	a0,-1987(gp) # 200000a5 <Level_Speed_ADJ_TTRIS>
     d2a:	b80ff06f          	j	aa <__riscv_restore_0>

00000d2e <Calcul_of_Score_TTRIS>:
     d2e:	157d                	addi	a0,a0,-1
     d30:	0ff57793          	andi	a5,a0,255
     d34:	470d                	li	a4,3
     d36:	00f76863          	bltu	a4,a5,d46 <Calcul_of_Score_TTRIS+0x18>
     d3a:	6511                	lui	a0,0x4
     d3c:	bf850513          	addi	a0,a0,-1032 # 3bf8 <CSWTCH.214>
     d40:	953e                	add	a0,a0,a5
     d42:	2108                	lbu	a0,0(a0)
     d44:	8082                	ret
     d46:	4501                	li	a0,0
     d48:	8082                	ret

00000d4a <Ou_suis_Je_TTRIS>:
     d4a:	b56ff2ef          	jal	t0,a0 <__riscv_save_0>
     d4e:	fdb50513          	addi	a0,a0,-37
     d52:	01851493          	slli	s1,a0,0x18
     d56:	84e1                	srai	s1,s1,0x18
     d58:	0591                	addi	a1,a1,4
     d5a:	01859413          	slli	s0,a1,0x18
     d5e:	8526                	mv	a0,s1
     d60:	458d                	li	a1,3
     d62:	b6aff0ef          	jal	ra,cc <__divsi3>
     d66:	1575                	addi	a0,a0,-3
     d68:	84a18423          	sb	a0,-1976(gp) # 200000b0 <OU_SUIS_JE_X_TTRIS>
     d6c:	458d                	li	a1,3
     d6e:	8526                	mv	a0,s1
     d70:	bb4ff0ef          	jal	ra,124 <__modsi3>
     d74:	0562                	slli	a0,a0,0x18
     d76:	8561                	srai	a0,a0,0x18
     d78:	8461                	srai	s0,s0,0x18
     d7a:	00a03533          	snez	a0,a0
     d7e:	84a183a3          	sb	a0,-1977(gp) # 200000af <OU_SUIS_JE_X_ENGAGED_TTRIS>
     d82:	458d                	li	a1,3
     d84:	8522                	mv	a0,s0
     d86:	b46ff0ef          	jal	ra,cc <__divsi3>
     d8a:	1575                	addi	a0,a0,-3
     d8c:	01851593          	slli	a1,a0,0x18
     d90:	85e1                	srai	a1,a1,0x18
     d92:	00358513          	addi	a0,a1,3 # ff100003 <__global_pointer$+0xdf0ff79b>
     d96:	84b18523          	sb	a1,-1974(gp) # 200000b2 <OU_SUIS_JE_Y_TTRIS>
     d9a:	00151593          	slli	a1,a0,0x1
     d9e:	95aa                	add	a1,a1,a0
     da0:	8d81                	sub	a1,a1,s0
     da2:	00b035b3          	snez	a1,a1
     da6:	84b184a3          	sb	a1,-1975(gp) # 200000b1 <OU_SUIS_JE_Y_ENGAGED_TTRIS>
     daa:	b00ff06f          	j	aa <__riscv_restore_0>

00000dae <Select_Piece_TTRIS>:
     dae:	84a185a3          	sb	a0,-1973(gp) # 200000b3 <PIECEs_TTRIS>
     db2:	4719                	li	a4,6
     db4:	84d18793          	addi	a5,gp,-1971 # 200000b5 <PIECEs_rot_TTRIS>
     db8:	00a76c63          	bltu	a4,a0,dd0 <Select_Piece_TTRIS+0x22>
     dbc:	670d                	lui	a4,0x3
     dbe:	7dc70713          	addi	a4,a4,2012 # 37dc <OLED_INIT_CMD+0x14>
     dc2:	050a                	slli	a0,a0,0x2
     dc4:	953a                	add	a0,a0,a4
     dc6:	4118                	lw	a4,0(a0)
     dc8:	8702                	jr	a4
     dca:	470d                	li	a4,3
     dcc:	a398                	sb	a4,0(a5)
     dce:	8082                	ret
     dd0:	00078023          	sb	zero,0(a5)
     dd4:	8082                	ret
     dd6:	4705                	li	a4,1
     dd8:	bfd5                	j	dcc <Select_Piece_TTRIS+0x1e>

00000dda <Scan_Piece_Matrix_TTRIS>:
     dda:	08000793          	li	a5,128
     dde:	40a7d533          	sra	a0,a5,a0
     de2:	6791                	lui	a5,0x4
     de4:	c4478793          	addi	a5,a5,-956 # 3c44 <Pieces_TTRIS>
     de8:	95be                	add	a1,a1,a5
     dea:	219c                	lbu	a5,0(a1)
     dec:	8d7d                	and	a0,a0,a5
     dee:	00a03533          	snez	a0,a0
     df2:	8082                	ret

00000df4 <rotate_Matrix_TTRIS>:
     df4:	aacff2ef          	jal	t0,a0 <__riscv_save_0>
     df8:	84b1c703          	lbu	a4,-1973(gp) # 200000b3 <PIECEs_TTRIS>
     dfc:	1101                	addi	sp,sp,-32
     dfe:	01851393          	slli	t2,a0,0x18
     e02:	00271793          	slli	a5,a4,0x2
     e06:	97ba                	add	a5,a5,a4
     e08:	0ff7f793          	andi	a5,a5,255
     e0c:	c03e                	sw	a5,0(sp)
     e0e:	862a                	mv	a2,a0
     e10:	4481                	li	s1,0
     e12:	4701                	li	a4,0
     e14:	4781                	li	a5,0
     e16:	4311                	li	t1,4
     e18:	4183d393          	srai	t2,t2,0x18
     e1c:	4682                	lw	a3,0(sp)
     e1e:	4401                	li	s0,0
     e20:	96a6                	add	a3,a3,s1
     e22:	06e2                	slli	a3,a3,0x18
     e24:	86e1                	srai	a3,a3,0x18
     e26:	c236                	sw	a3,4(sp)
     e28:	409306b3          	sub	a3,t1,s1
     e2c:	0ff6f693          	andi	a3,a3,255
     e30:	4585                	li	a1,1
     e32:	06b60163          	beq	a2,a1,e94 <rotate_Matrix_TTRIS+0xa0>
     e36:	06038e63          	beqz	t2,eb2 <rotate_Matrix_TTRIS+0xbe>
     e3a:	4589                	li	a1,2
     e3c:	04b60f63          	beq	a2,a1,e9a <rotate_Matrix_TTRIS+0xa6>
     e40:	458d                	li	a1,3
     e42:	06b60263          	beq	a2,a1,ea6 <rotate_Matrix_TTRIS+0xb2>
     e46:	4592                	lw	a1,4(sp)
     e48:	01841513          	slli	a0,s0,0x18
     e4c:	8561                	srai	a0,a0,0x18
     e4e:	ce1e                	sw	t2,28(sp)
     e50:	cc36                	sw	a3,24(sp)
     e52:	ca1a                	sw	t1,20(sp)
     e54:	c832                	sw	a2,16(sp)
     e56:	c63a                	sw	a4,12(sp)
     e58:	c43e                	sw	a5,8(sp)
     e5a:	3741                	jal	dda <Scan_Piece_Matrix_TTRIS>
     e5c:	47a2                	lw	a5,8(sp)
     e5e:	85018293          	addi	t0,gp,-1968 # 200000b8 <Piece_Mat2_TTRIS>
     e62:	00279593          	slli	a1,a5,0x2
     e66:	4732                	lw	a4,12(sp)
     e68:	95be                	add	a1,a1,a5
     e6a:	9596                	add	a1,a1,t0
     e6c:	95ba                	add	a1,a1,a4
     e6e:	0405                	addi	s0,s0,1
     e70:	a188                	sb	a0,0(a1)
     e72:	0ff47413          	andi	s0,s0,255
     e76:	4595                	li	a1,5
     e78:	4642                	lw	a2,16(sp)
     e7a:	4352                	lw	t1,20(sp)
     e7c:	46e2                	lw	a3,24(sp)
     e7e:	43f2                	lw	t2,28(sp)
     e80:	fab418e3          	bne	s0,a1,e30 <rotate_Matrix_TTRIS+0x3c>
     e84:	0485                	addi	s1,s1,1
     e86:	0ff4f493          	andi	s1,s1,255
     e8a:	f88499e3          	bne	s1,s0,e1c <rotate_Matrix_TTRIS+0x28>
     e8e:	6105                	addi	sp,sp,32
     e90:	a1aff06f          	j	aa <__riscv_restore_0>
     e94:	87b6                	mv	a5,a3
     e96:	8722                	mv	a4,s0
     e98:	b77d                	j	e46 <rotate_Matrix_TTRIS+0x52>
     e9a:	408307b3          	sub	a5,t1,s0
     e9e:	0ff7f793          	andi	a5,a5,255
     ea2:	8736                	mv	a4,a3
     ea4:	b74d                	j	e46 <rotate_Matrix_TTRIS+0x52>
     ea6:	40830733          	sub	a4,t1,s0
     eaa:	0ff77713          	andi	a4,a4,255
     eae:	87a6                	mv	a5,s1
     eb0:	bf59                	j	e46 <rotate_Matrix_TTRIS+0x52>
     eb2:	8726                	mv	a4,s1
     eb4:	87a2                	mv	a5,s0
     eb6:	bf41                	j	e46 <rotate_Matrix_TTRIS+0x52>

00000eb8 <SETUP_NEW_PREVIEW_PIECE_TTRIS>:
     eb8:	9e8ff2ef          	jal	t0,a0 <__riscv_save_0>
     ebc:	842a                	mv	s0,a0
     ebe:	3d29                	jal	cd8 <PSEUDO_RND_TTRIS>
     ec0:	84a18623          	sb	a0,-1972(gp) # 200000b4 <PIECEs_TTRIS_PREVIEW>
     ec4:	84b1c503          	lbu	a0,-1973(gp) # 200000b3 <PIECEs_TTRIS>
     ec8:	35dd                	jal	dae <Select_Piece_TTRIS>
     eca:	4501                	li	a0,0
     ecc:	00040023          	sb	zero,0(s0)
     ed0:	3715                	jal	df4 <rotate_Matrix_TTRIS>
     ed2:	9d8ff06f          	j	aa <__riscv_restore_0>

00000ed6 <GRID_STAT_TTRIS>:
     ed6:	4781                	li	a5,0
     ed8:	0205ce63          	bltz	a1,f14 <GRID_STAT_TTRIS+0x3e>
     edc:	0ff57713          	andi	a4,a0,255
     ee0:	46ad                	li	a3,11
     ee2:	4785                	li	a5,1
     ee4:	02e6e863          	bltu	a3,a4,f14 <GRID_STAT_TTRIS+0x3e>
     ee8:	4749                	li	a4,18
     eea:	02b74563          	blt	a4,a1,f14 <GRID_STAT_TTRIS+0x3e>
     eee:	0075f713          	andi	a4,a1,7
     ef2:	08000793          	li	a5,128
     ef6:	40e7d7b3          	sra	a5,a5,a4
     efa:	4035d713          	srai	a4,a1,0x3
     efe:	00151593          	slli	a1,a0,0x1
     f02:	952e                	add	a0,a0,a1
     f04:	81818593          	addi	a1,gp,-2024 # 20000080 <Grid_TTRIS>
     f08:	95aa                	add	a1,a1,a0
     f0a:	95ba                	add	a1,a1,a4
     f0c:	2188                	lbu	a0,0(a1)
     f0e:	8fe9                	and	a5,a5,a0
     f10:	00f037b3          	snez	a5,a5
     f14:	853e                	mv	a0,a5
     f16:	8082                	ret

00000f18 <End_Play_TTRIS>:
     f18:	988ff2ef          	jal	t0,a0 <__riscv_save_0>
     f1c:	4401                	li	s0,0
     f1e:	44b1                	li	s1,12
     f20:	01841513          	slli	a0,s0,0x18
     f24:	4585                	li	a1,1
     f26:	8561                	srai	a0,a0,0x18
     f28:	377d                	jal	ed6 <GRID_STAT_TTRIS>
     f2a:	4785                	li	a5,1
     f2c:	00f50863          	beq	a0,a5,f3c <End_Play_TTRIS+0x24>
     f30:	0405                	addi	s0,s0,1
     f32:	0ff47413          	andi	s0,s0,255
     f36:	fe9415e3          	bne	s0,s1,f20 <End_Play_TTRIS+0x8>
     f3a:	4501                	li	a0,0
     f3c:	96eff06f          	j	aa <__riscv_restore_0>

00000f40 <Check_collision_x_TTRIS>:
     f40:	960ff2ef          	jal	t0,a0 <__riscv_save_0>
     f44:	8481c703          	lbu	a4,-1976(gp) # 200000b0 <OU_SUIS_JE_X_TTRIS>
     f48:	84a1c683          	lbu	a3,-1974(gp) # 200000b2 <OU_SUIS_JE_Y_TTRIS>
     f4c:	85018793          	addi	a5,gp,-1968 # 200000b8 <Piece_Mat2_TTRIS>
     f50:	972a                	add	a4,a4,a0
     f52:	01978613          	addi	a2,a5,25
     f56:	1131                	addi	sp,sp,-20
     f58:	0ff77713          	andi	a4,a4,255
     f5c:	07f9                	addi	a5,a5,30
     f5e:	4285                	li	t0,1
     f60:	01869313          	slli	t1,a3,0x18
     f64:	41835313          	srai	t1,t1,0x18
     f68:	fe760493          	addi	s1,a2,-25
     f6c:	843a                	mv	s0,a4
     f6e:	0004c383          	lbu	t2,0(s1)
     f72:	02539563          	bne	t2,t0,f9c <Check_collision_x_TTRIS+0x5c>
     f76:	01841513          	slli	a0,s0,0x18
     f7a:	859a                	mv	a1,t1
     f7c:	8561                	srai	a0,a0,0x18
     f7e:	c81e                	sw	t2,16(sp)
     f80:	c636                	sw	a3,12(sp)
     f82:	c432                	sw	a2,8(sp)
     f84:	c23a                	sw	a4,4(sp)
     f86:	c01a                	sw	t1,0(sp)
     f88:	37b9                	jal	ed6 <GRID_STAT_TTRIS>
     f8a:	4302                	lw	t1,0(sp)
     f8c:	4712                	lw	a4,4(sp)
     f8e:	4622                	lw	a2,8(sp)
     f90:	46b2                	lw	a3,12(sp)
     f92:	86e18793          	addi	a5,gp,-1938 # 200000d6 <xx_TTRIS>
     f96:	43c2                	lw	t2,16(sp)
     f98:	4285                	li	t0,1
     f9a:	ed19                	bnez	a0,fb8 <Check_collision_x_TTRIS+0x78>
     f9c:	0405                	addi	s0,s0,1
     f9e:	0495                	addi	s1,s1,5
     fa0:	0ff47413          	andi	s0,s0,255
     fa4:	fcc495e3          	bne	s1,a2,f6e <Check_collision_x_TTRIS+0x2e>
     fa8:	0685                	addi	a3,a3,1
     faa:	00148613          	addi	a2,s1,1
     fae:	0ff6f693          	andi	a3,a3,255
     fb2:	faf617e3          	bne	a2,a5,f60 <Check_collision_x_TTRIS+0x20>
     fb6:	4381                	li	t2,0
     fb8:	851e                	mv	a0,t2
     fba:	0151                	addi	sp,sp,20
     fbc:	8eeff06f          	j	aa <__riscv_restore_0>

00000fc0 <Check_collision_y_TTRIS>:
     fc0:	8e0ff2ef          	jal	t0,a0 <__riscv_save_0>
     fc4:	8481c603          	lbu	a2,-1976(gp) # 200000b0 <OU_SUIS_JE_X_TTRIS>
     fc8:	84a1c403          	lbu	s0,-1974(gp) # 200000b2 <OU_SUIS_JE_Y_TTRIS>
     fcc:	85018793          	addi	a5,gp,-1968 # 200000b8 <Piece_Mat2_TTRIS>
     fd0:	942a                	add	s0,s0,a0
     fd2:	1131                	addi	sp,sp,-20
     fd4:	0ff47413          	andi	s0,s0,255
     fd8:	01978693          	addi	a3,a5,25
     fdc:	01e78713          	addi	a4,a5,30
     fe0:	4285                	li	t0,1
     fe2:	01841313          	slli	t1,s0,0x18
     fe6:	41835313          	srai	t1,t1,0x18
     fea:	fe768793          	addi	a5,a3,-25 # 40020fe7 <__global_pointer$+0x2002077f>
     fee:	84b2                	mv	s1,a2
     ff0:	0007c383          	lbu	t2,0(a5)
     ff4:	02539563          	bne	t2,t0,101e <Check_collision_y_TTRIS+0x5e>
     ff8:	01849513          	slli	a0,s1,0x18
     ffc:	859a                	mv	a1,t1
     ffe:	8561                	srai	a0,a0,0x18
    1000:	c81e                	sw	t2,16(sp)
    1002:	c636                	sw	a3,12(sp)
    1004:	c43e                	sw	a5,8(sp)
    1006:	c232                	sw	a2,4(sp)
    1008:	c01a                	sw	t1,0(sp)
    100a:	35f1                	jal	ed6 <GRID_STAT_TTRIS>
    100c:	4302                	lw	t1,0(sp)
    100e:	4612                	lw	a2,4(sp)
    1010:	47a2                	lw	a5,8(sp)
    1012:	46b2                	lw	a3,12(sp)
    1014:	86e18713          	addi	a4,gp,-1938 # 200000d6 <xx_TTRIS>
    1018:	43c2                	lw	t2,16(sp)
    101a:	4285                	li	t0,1
    101c:	ed19                	bnez	a0,103a <Check_collision_y_TTRIS+0x7a>
    101e:	0485                	addi	s1,s1,1
    1020:	0795                	addi	a5,a5,5
    1022:	0ff4f493          	andi	s1,s1,255
    1026:	fcd795e3          	bne	a5,a3,ff0 <Check_collision_y_TTRIS+0x30>
    102a:	0405                	addi	s0,s0,1
    102c:	00178693          	addi	a3,a5,1
    1030:	0ff47413          	andi	s0,s0,255
    1034:	fae697e3          	bne	a3,a4,fe2 <Check_collision_y_TTRIS+0x22>
    1038:	4381                	li	t2,0
    103a:	851e                	mv	a0,t2
    103c:	0151                	addi	sp,sp,20
    103e:	86cff06f          	j	aa <__riscv_restore_0>

00001042 <CHECK_if_Rot_Ok_TTRIS>:
    1042:	85eff2ef          	jal	t0,a0 <__riscv_save_0>
    1046:	86f18583          	lb	a1,-1937(gp) # 200000d7 <yy_TTRIS>
    104a:	842a                	mv	s0,a0
    104c:	2104                	lbu	s1,0(a0)
    104e:	86e18503          	lb	a0,-1938(gp) # 200000d6 <xx_TTRIS>
    1052:	39e5                	jal	d4a <Ou_suis_Je_TTRIS>
    1054:	201c                	lbu	a5,0(s0)
    1056:	84d1c703          	lbu	a4,-1971(gp) # 200000b5 <PIECEs_rot_TTRIS>
    105a:	4501                	li	a0,0
    105c:	00e7f563          	bgeu	a5,a4,1066 <CHECK_if_Rot_Ok_TTRIS+0x24>
    1060:	0785                	addi	a5,a5,1
    1062:	0ff7f513          	andi	a0,a5,255
    1066:	a008                	sb	a0,0(s0)
    1068:	3371                	jal	df4 <rotate_Matrix_TTRIS>
    106a:	84718503          	lb	a0,-1977(gp) # 200000af <OU_SUIS_JE_X_ENGAGED_TTRIS>
    106e:	3dc9                	jal	f40 <Check_collision_x_TTRIS>
    1070:	e509                	bnez	a0,107a <CHECK_if_Rot_Ok_TTRIS+0x38>
    1072:	84918503          	lb	a0,-1975(gp) # 200000b1 <OU_SUIS_JE_Y_ENGAGED_TTRIS>
    1076:	37a9                	jal	fc0 <Check_collision_y_TTRIS>
    1078:	c509                	beqz	a0,1082 <CHECK_if_Rot_Ok_TTRIS+0x40>
    107a:	8526                	mv	a0,s1
    107c:	a004                	sb	s1,0(s0)
    107e:	3b9d                	jal	df4 <rotate_Matrix_TTRIS>
    1080:	4505                	li	a0,1
    1082:	828ff06f          	j	aa <__riscv_restore_0>

00001086 <CONTROLE_TTRIS>:
    1086:	81aff2ef          	jal	t0,a0 <__riscv_save_0>
    108a:	8471c703          	lbu	a4,-1977(gp) # 200000af <OU_SUIS_JE_X_ENGAGED_TTRIS>
    108e:	1171                	addi	sp,sp,-4
    1090:	84718793          	addi	a5,gp,-1977 # 200000af <OU_SUIS_JE_X_ENGAGED_TTRIS>
    1094:	c03e                	sw	a5,0(sp)
    1096:	84aa                	mv	s1,a0
    1098:	eb35                	bnez	a4,110c <CONTROLE_TTRIS+0x86>
    109a:	86b18713          	addi	a4,gp,-1941 # 200000d3 <SPEED_x_trig_TTRIS>
    109e:	231c                	lbu	a5,0(a4)
    10a0:	86b18413          	addi	s0,gp,-1941 # 200000d3 <SPEED_x_trig_TTRIS>
    10a4:	0a079d63          	bnez	a5,115e <CONTROLE_TTRIS+0xd8>
    10a8:	a80ff0ef          	jal	ra,328 <joy_right_pressed>
    10ac:	c51d                	beqz	a0,10da <CONTROLE_TTRIS+0x54>
    10ae:	03200513          	li	a0,50
    10b2:	6bc010ef          	jal	ra,276e <Delay_Ms>
    10b6:	83c1c783          	lbu	a5,-1988(gp) # 200000a4 <LONG_PRESS_X_TTRIS>
    10ba:	83c18713          	addi	a4,gp,-1988 # 200000a4 <LONG_PRESS_X_TTRIS>
    10be:	c781                	beqz	a5,10c6 <CONTROLE_TTRIS+0x40>
    10c0:	46d1                	li	a3,20
    10c2:	00d79763          	bne	a5,a3,10d0 <CONTROLE_TTRIS+0x4a>
    10c6:	4605                	li	a2,1
    10c8:	80c188a3          	sb	a2,-2031(gp) # 20000079 <DEPLACEMENT_XX_TTRIS>
    10cc:	4689                	li	a3,2
    10ce:	a014                	sb	a3,0(s0)
    10d0:	46cd                	li	a3,19
    10d2:	00f6e463          	bltu	a3,a5,10da <CONTROLE_TTRIS+0x54>
    10d6:	0785                	addi	a5,a5,1
    10d8:	a31c                	sb	a5,0(a4)
    10da:	a3eff0ef          	jal	ra,318 <joy_left_pressed>
    10de:	c51d                	beqz	a0,110c <CONTROLE_TTRIS+0x86>
    10e0:	03200513          	li	a0,50
    10e4:	68a010ef          	jal	ra,276e <Delay_Ms>
    10e8:	83c1c783          	lbu	a5,-1988(gp) # 200000a4 <LONG_PRESS_X_TTRIS>
    10ec:	83c18713          	addi	a4,gp,-1988 # 200000a4 <LONG_PRESS_X_TTRIS>
    10f0:	c781                	beqz	a5,10f8 <CONTROLE_TTRIS+0x72>
    10f2:	46d1                	li	a3,20
    10f4:	00d79763          	bne	a5,a3,1102 <CONTROLE_TTRIS+0x7c>
    10f8:	567d                	li	a2,-1
    10fa:	80c188a3          	sb	a2,-2031(gp) # 20000079 <DEPLACEMENT_XX_TTRIS>
    10fe:	4689                	li	a3,2
    1100:	a014                	sb	a3,0(s0)
    1102:	46cd                	li	a3,19
    1104:	00f6e463          	bltu	a3,a5,110c <CONTROLE_TTRIS+0x86>
    1108:	0785                	addi	a5,a5,1
    110a:	a31c                	sb	a5,0(a4)
    110c:	a1cff0ef          	jal	ra,328 <joy_right_pressed>
    1110:	e519                	bnez	a0,111e <CONTROLE_TTRIS+0x98>
    1112:	a06ff0ef          	jal	ra,318 <joy_left_pressed>
    1116:	e501                	bnez	a0,111e <CONTROLE_TTRIS+0x98>
    1118:	82018e23          	sb	zero,-1988(gp) # 200000a4 <LONG_PRESS_X_TTRIS>
    111c:	3e75                	jal	cd8 <PSEUDO_RND_TTRIS>
    111e:	a0aff0ef          	jal	ra,328 <joy_right_pressed>
    1122:	4782                	lw	a5,0(sp)
    1124:	8491c683          	lbu	a3,-1975(gp) # 200000b1 <OU_SUIS_JE_Y_ENGAGED_TTRIS>
    1128:	239c                	lbu	a5,0(a5)
    112a:	84918713          	addi	a4,gp,-1975 # 200000b1 <OU_SUIS_JE_Y_ENGAGED_TTRIS>
    112e:	8fd5                	or	a5,a5,a3
    1130:	8d5d                	or	a0,a0,a5
    1132:	0ff57513          	andi	a0,a0,255
    1136:	86a18413          	addi	s0,gp,-1942 # 200000d2 <Ripple_filter_TTRIS>
    113a:	e505                	bnez	a0,1162 <CONTROLE_TTRIS+0xdc>
    113c:	00040023          	sb	zero,0(s0)
    1140:	81618713          	addi	a4,gp,-2026 # 2000007e <DROP_TRIG_TTRIS>
    1144:	231c                	lbu	a5,0(a4)
    1146:	17fd                	addi	a5,a5,-1
    1148:	0ff7f793          	andi	a5,a5,255
    114c:	a31c                	sb	a5,0(a4)
    114e:	e795                	bnez	a5,117a <CONTROLE_TTRIS+0xf4>
    1150:	4685                	li	a3,1
    1152:	80d18923          	sb	a3,-2030(gp) # 2000007a <DEPLACEMENT_YY_TTRIS>
    1156:	83d1c783          	lbu	a5,-1987(gp) # 200000a5 <Level_Speed_ADJ_TTRIS>
    115a:	a31c                	sb	a5,0(a4)
    115c:	a839                	j	117a <CONTROLE_TTRIS+0xf4>
    115e:	17fd                	addi	a5,a5,-1
    1160:	b76d                	j	110a <CONTROLE_TTRIS+0x84>
    1162:	2014                	lbu	a3,0(s0)
    1164:	4785                	li	a5,1
    1166:	00f69863          	bne	a3,a5,1176 <CONTROLE_TTRIS+0xf0>
    116a:	8526                	mv	a0,s1
    116c:	3dd9                	jal	1042 <CHECK_if_Rot_Ok_TTRIS>
    116e:	4789                	li	a5,2
    1170:	a01c                	sb	a5,0(s0)
    1172:	84918713          	addi	a4,gp,-1975 # 200000b1 <OU_SUIS_JE_Y_ENGAGED_TTRIS>
    1176:	231c                	lbu	a5,0(a4)
    1178:	d7e1                	beqz	a5,1140 <CONTROLE_TTRIS+0xba>
    117a:	8151c783          	lbu	a5,-2027(gp) # 2000007d <DROP_SPEED_TTRIS>
    117e:	81518413          	addi	s0,gp,-2027 # 2000007d <DROP_SPEED_TTRIS>
    1182:	cf95                	beqz	a5,11be <CONTROLE_TTRIS+0x138>
    1184:	17fd                	addi	a5,a5,-1
    1186:	0ff7f793          	andi	a5,a5,255
    118a:	a01c                	sb	a5,0(s0)
    118c:	97aff0ef          	jal	ra,306 <joy_down_pressed>
    1190:	81318493          	addi	s1,gp,-2029 # 2000007b <DOWN_DESACTIVE_TTRIS>
    1194:	c905                	beqz	a0,11c4 <CONTROLE_TTRIS+0x13e>
    1196:	4782                	lw	a5,0(sp)
    1198:	239c                	lbu	a5,0(a5)
    119a:	e791                	bnez	a5,11a6 <CONTROLE_TTRIS+0x120>
    119c:	800188a3          	sb	zero,-2031(gp) # 20000079 <DEPLACEMENT_XX_TTRIS>
    11a0:	4705                	li	a4,1
    11a2:	82e18e23          	sb	a4,-1988(gp) # 200000a4 <LONG_PRESS_X_TTRIS>
    11a6:	b33ff0ef          	jal	ra,cd8 <PSEUDO_RND_TTRIS>
    11aa:	209c                	lbu	a5,0(s1)
    11ac:	e791                	bnez	a5,11b8 <CONTROLE_TTRIS+0x132>
    11ae:	4705                	li	a4,1
    11b0:	80e18923          	sb	a4,-2030(gp) # 2000007a <DEPLACEMENT_YY_TTRIS>
    11b4:	00040023          	sb	zero,0(s0)
    11b8:	0111                	addi	sp,sp,4
    11ba:	ef1fe06f          	j	aa <__riscv_restore_0>
    11be:	83d1c783          	lbu	a5,-1987(gp) # 200000a5 <Level_Speed_ADJ_TTRIS>
    11c2:	b7e1                	j	118a <CONTROLE_TTRIS+0x104>
    11c4:	00048023          	sb	zero,0(s1)
    11c8:	bfc5                	j	11b8 <CONTROLE_TTRIS+0x132>

000011ca <CHANGE_GRID_STAT_TTRIS>:
    11ca:	0ff57713          	andi	a4,a0,255
    11ce:	47ad                	li	a5,11
    11d0:	02e7e963          	bltu	a5,a4,1202 <CHANGE_GRID_STAT_TTRIS+0x38>
    11d4:	0ff5f793          	andi	a5,a1,255
    11d8:	4749                	li	a4,18
    11da:	02f76463          	bltu	a4,a5,1202 <CHANGE_GRID_STAT_TTRIS+0x38>
    11de:	08000713          	li	a4,128
    11e2:	8b9d                	andi	a5,a5,7
    11e4:	40f757b3          	sra	a5,a4,a5
    11e8:	4035d713          	srai	a4,a1,0x3
    11ec:	00151593          	slli	a1,a0,0x1
    11f0:	952e                	add	a0,a0,a1
    11f2:	81818593          	addi	a1,gp,-2024 # 20000080 <Grid_TTRIS>
    11f6:	95aa                	add	a1,a1,a0
    11f8:	95ba                	add	a1,a1,a4
    11fa:	2198                	lbu	a4,0(a1)
    11fc:	c609                	beqz	a2,1206 <CHANGE_GRID_STAT_TTRIS+0x3c>
    11fe:	8fd9                	or	a5,a5,a4
    1200:	a19c                	sb	a5,0(a1)
    1202:	4501                	li	a0,0
    1204:	8082                	ret
    1206:	fff7c793          	not	a5,a5
    120a:	8ff9                	and	a5,a5,a4
    120c:	bfd5                	j	1200 <CHANGE_GRID_STAT_TTRIS+0x36>

0000120e <PAINT_LINE_TTRIS>:
    120e:	e93fe2ef          	jal	t0,a0 <__riscv_save_0>
    1212:	1151                	addi	sp,sp,-12
    1214:	872a                	mv	a4,a0
    1216:	86ae                	mv	a3,a1
    1218:	4481                	li	s1,0
    121a:	009687b3          	add	a5,a3,s1
    121e:	2390                	lbu	a2,0(a5)
    1220:	4785                	li	a5,1
    1222:	02f61963          	bne	a2,a5,1254 <PAINT_LINE_TTRIS+0x46>
    1226:	01849313          	slli	t1,s1,0x18
    122a:	4401                	li	s0,0
    122c:	41835313          	srai	t1,t1,0x18
    1230:	01841513          	slli	a0,s0,0x18
    1234:	863a                	mv	a2,a4
    1236:	859a                	mv	a1,t1
    1238:	8561                	srai	a0,a0,0x18
    123a:	c436                	sw	a3,8(sp)
    123c:	c23a                	sw	a4,4(sp)
    123e:	c01a                	sw	t1,0(sp)
    1240:	0405                	addi	s0,s0,1
    1242:	3761                	jal	11ca <CHANGE_GRID_STAT_TTRIS>
    1244:	0ff47413          	andi	s0,s0,255
    1248:	47b1                	li	a5,12
    124a:	4302                	lw	t1,0(sp)
    124c:	4712                	lw	a4,4(sp)
    124e:	46a2                	lw	a3,8(sp)
    1250:	fef410e3          	bne	s0,a5,1230 <PAINT_LINE_TTRIS+0x22>
    1254:	0485                	addi	s1,s1,1
    1256:	47cd                	li	a5,19
    1258:	fcf491e3          	bne	s1,a5,121a <PAINT_LINE_TTRIS+0xc>
    125c:	0131                	addi	sp,sp,12
    125e:	e4dfe06f          	j	aa <__riscv_restore_0>

00001262 <Clean_Grid_TTRIS>:
    1262:	e3ffe2ef          	jal	t0,a0 <__riscv_save_0>
    1266:	1141                	addi	sp,sp,-16
    1268:	c02a                	sw	a0,0(sp)
    126a:	4449                	li	s0,18
    126c:	4785                	li	a5,1
    126e:	4702                	lw	a4,0(sp)
    1270:	9722                	add	a4,a4,s0
    1272:	2314                	lbu	a3,0(a4)
    1274:	06f69a63          	bne	a3,a5,12e8 <Clean_Grid_TTRIS+0x86>
    1278:	4481                	li	s1,0
    127a:	fff40793          	addi	a5,s0,-1
    127e:	ec35                	bnez	s0,12fa <Clean_Grid_TTRIS+0x98>
    1280:	4782                	lw	a5,0(sp)
    1282:	4685                	li	a3,1
    1284:	00978733          	add	a4,a5,s1
    1288:	2310                	lbu	a2,0(a4)
    128a:	4701                	li	a4,0
    128c:	06d60463          	beq	a2,a3,12f4 <Clean_Grid_TTRIS+0x92>
    1290:	01841793          	slli	a5,s0,0x18
    1294:	87e1                	srai	a5,a5,0x18
    1296:	c23e                	sw	a5,4(sp)
    1298:	01871693          	slli	a3,a4,0x18
    129c:	86e1                	srai	a3,a3,0x18
    129e:	4601                	li	a2,0
    12a0:	c899                	beqz	s1,12b6 <Clean_Grid_TTRIS+0x54>
    12a2:	01849593          	slli	a1,s1,0x18
    12a6:	8536                	mv	a0,a3
    12a8:	85e1                	srai	a1,a1,0x18
    12aa:	c63a                	sw	a4,12(sp)
    12ac:	c436                	sw	a3,8(sp)
    12ae:	3125                	jal	ed6 <GRID_STAT_TTRIS>
    12b0:	4732                	lw	a4,12(sp)
    12b2:	46a2                	lw	a3,8(sp)
    12b4:	862a                	mv	a2,a0
    12b6:	4592                	lw	a1,4(sp)
    12b8:	8536                	mv	a0,a3
    12ba:	c43a                	sw	a4,8(sp)
    12bc:	3739                	jal	11ca <CHANGE_GRID_STAT_TTRIS>
    12be:	4722                	lw	a4,8(sp)
    12c0:	46b1                	li	a3,12
    12c2:	0705                	addi	a4,a4,1
    12c4:	0ff77713          	andi	a4,a4,255
    12c8:	fcd718e3          	bne	a4,a3,1298 <Clean_Grid_TTRIS+0x36>
    12cc:	c815                	beqz	s0,1300 <Clean_Grid_TTRIS+0x9e>
    12ce:	fff40313          	addi	t1,s0,-1
    12d2:	0ff37413          	andi	s0,t1,255
    12d6:	c489                	beqz	s1,12e0 <Clean_Grid_TTRIS+0x7e>
    12d8:	fff48793          	addi	a5,s1,-1
    12dc:	0ff7f493          	andi	s1,a5,255
    12e0:	f045                	bnez	s0,1280 <Clean_Grid_TTRIS+0x1e>
    12e2:	0141                	addi	sp,sp,16
    12e4:	dc7fe06f          	j	aa <__riscv_restore_0>
    12e8:	d449                	beqz	s0,1272 <Clean_Grid_TTRIS+0x10>
    12ea:	fff40313          	addi	t1,s0,-1
    12ee:	0ff37413          	andi	s0,t1,255
    12f2:	bfb5                	j	126e <Clean_Grid_TTRIS+0xc>
    12f4:	d4d1                	beqz	s1,1280 <Clean_Grid_TTRIS+0x1e>
    12f6:	fff48793          	addi	a5,s1,-1
    12fa:	0ff7f493          	andi	s1,a5,255
    12fe:	b749                	j	1280 <Clean_Grid_TTRIS+0x1e>
    1300:	fce1                	bnez	s1,12d8 <Clean_Grid_TTRIS+0x76>
    1302:	b7c5                	j	12e2 <Clean_Grid_TTRIS+0x80>

00001304 <blitzSprite_TTRIS>:
    1304:	d9dfe2ef          	jal	t0,a0 <__riscv_save_0>
    1308:	0007c383          	lbu	t2,0(a5)
    130c:	1101                	addi	sp,sp,-32
    130e:	4401                	li	s0,0
    1310:	fff38313          	addi	t1,t2,-1
    1314:	932a                	add	t1,t1,a0
    1316:	0cc34b63          	blt	t1,a2,13ec <blitzSprite_TTRIS+0xe8>
    131a:	0ca64963          	blt	a2,a0,13ec <blitzSprite_TTRIS+0xe8>
    131e:	0ff5f313          	andi	t1,a1,255
    1322:	00335293          	srli	t0,t1,0x3
    1326:	ce1a                	sw	t1,28(sp)
    1328:	0c56e263          	bltu	a3,t0,13ec <blitzSprite_TTRIS+0xe8>
    132c:	338c                	lbu	a1,1(a5)
    132e:	cc16                	sw	t0,24(sp)
    1330:	00b284b3          	add	s1,t0,a1
    1334:	0ad4cc63          	blt	s1,a3,13ec <blitzSprite_TTRIS+0xe8>
    1338:	c02a                	sw	a0,0(sp)
    133a:	851e                	mv	a0,t2
    133c:	8432                	mv	s0,a2
    133e:	c436                	sw	a3,8(sp)
    1340:	c21e                	sw	t2,4(sp)
    1342:	84be                	mv	s1,a5
    1344:	c63a                	sw	a4,12(sp)
    1346:	d6ffe0ef          	jal	ra,b4 <__mulsi3>
    134a:	4732                	lw	a4,12(sp)
    134c:	0505                	addi	a0,a0,1
    134e:	0ff57793          	andi	a5,a0,255
    1352:	85ba                	mv	a1,a4
    1354:	fff78513          	addi	a0,a5,-1
    1358:	ca3e                	sw	a5,20(sp)
    135a:	d5bfe0ef          	jal	ra,b4 <__mulsi3>
    135e:	46a2                	lw	a3,8(sp)
    1360:	42e2                	lw	t0,24(sp)
    1362:	4372                	lw	t1,28(sp)
    1364:	4392                	lw	t2,4(sp)
    1366:	405686b3          	sub	a3,a3,t0
    136a:	028e                	slli	t0,t0,0x3
    136c:	0ff6f693          	andi	a3,a3,255
    1370:	01051713          	slli	a4,a0,0x10
    1374:	40530333          	sub	t1,t1,t0
    1378:	8341                	srli	a4,a4,0x10
    137a:	0ff37313          	andi	t1,t1,255
    137e:	85b6                	mv	a1,a3
    1380:	851e                	mv	a0,t2
    1382:	c83a                	sw	a4,16(sp)
    1384:	c61a                	sw	t1,12(sp)
    1386:	c436                	sw	a3,8(sp)
    1388:	d2dfe0ef          	jal	ra,b4 <__mulsi3>
    138c:	4782                	lw	a5,0(sp)
    138e:	00240613          	addi	a2,s0,2
    1392:	0ff57513          	andi	a0,a0,255
    1396:	8e1d                	sub	a2,a2,a5
    1398:	0ff67613          	andi	a2,a2,255
    139c:	47d2                	lw	a5,20(sp)
    139e:	00c505b3          	add	a1,a0,a2
    13a2:	0ff5f593          	andi	a1,a1,255
    13a6:	4401                	li	s0,0
    13a8:	4392                	lw	t2,4(sp)
    13aa:	46a2                	lw	a3,8(sp)
    13ac:	4332                	lw	t1,12(sp)
    13ae:	4742                	lw	a4,16(sp)
    13b0:	00b7ea63          	bltu	a5,a1,13c4 <blitzSprite_TTRIS+0xc0>
    13b4:	00e482b3          	add	t0,s1,a4
    13b8:	9596                	add	a1,a1,t0
    13ba:	2180                	lbu	s0,0(a1)
    13bc:	00641433          	sll	s0,s0,t1
    13c0:	0ff47413          	andi	s0,s0,255
    13c4:	c685                	beqz	a3,13ec <blitzSprite_TTRIS+0xe8>
    13c6:	407503b3          	sub	t2,a0,t2
    13ca:	961e                	add	a2,a2,t2
    13cc:	0ff67613          	andi	a2,a2,255
    13d0:	94ba                	add	s1,s1,a4
    13d2:	94b2                	add	s1,s1,a2
    13d4:	2088                	lbu	a0,0(s1)
    13d6:	00c7eb63          	bltu	a5,a2,13ec <blitzSprite_TTRIS+0xe8>
    13da:	42a1                	li	t0,8
    13dc:	40628333          	sub	t1,t0,t1
    13e0:	40655333          	sra	t1,a0,t1
    13e4:	00646433          	or	s0,s0,t1
    13e8:	0ff47413          	andi	s0,s0,255
    13ec:	8522                	mv	a0,s0
    13ee:	6105                	addi	sp,sp,32
    13f0:	cbbfe06f          	j	aa <__riscv_restore_0>

000013f4 <NEXT_BLOCK_TTRIS>:
    13f4:	cadfe2ef          	jal	t0,a0 <__riscv_save_0>
    13f8:	05900793          	li	a5,89
    13fc:	1101                	addi	sp,sp,-32
    13fe:	4481                	li	s1,0
    1400:	0aa7f963          	bgeu	a5,a0,14b2 <NEXT_BLOCK_TTRIS+0xbe>
    1404:	84c1c783          	lbu	a5,-1972(gp) # 200000b4 <PIECEs_TTRIS_PREVIEW>
    1408:	4715                	li	a4,5
    140a:	0af76863          	bltu	a4,a5,14ba <NEXT_BLOCK_TTRIS+0xc6>
    140e:	6711                	lui	a4,0x4
    1410:	bfc70713          	addi	a4,a4,-1028 # 3bfc <CSWTCH.215>
    1414:	973e                	add	a4,a4,a5
    1416:	2314                	lbu	a3,0(a4)
    1418:	6711                	lui	a4,0x4
    141a:	c0470713          	addi	a4,a4,-1020 # 3c04 <CSWTCH.216>
    141e:	973e                	add	a4,a4,a5
    1420:	2300                	lbu	s0,0(a4)
    1422:	00279713          	slli	a4,a5,0x2
    1426:	97ba                	add	a5,a5,a4
    1428:	0ff7f793          	andi	a5,a5,255
    142c:	c03e                	sw	a5,0(sp)
    142e:	0459                	addi	s0,s0,22
    1430:	05c68793          	addi	a5,a3,92
    1434:	ca2e                	sw	a1,20(sp)
    1436:	c82a                	sw	a0,16(sp)
    1438:	0ff47413          	andi	s0,s0,255
    143c:	4481                	li	s1,0
    143e:	4381                	li	t2,0
    1440:	c63e                	sw	a5,12(sp)
    1442:	4782                	lw	a5,0(sp)
    1444:	4301                	li	t1,0
    1446:	979e                	add	a5,a5,t2
    1448:	07e2                	slli	a5,a5,0x18
    144a:	87e1                	srai	a5,a5,0x18
    144c:	c43e                	sw	a5,8(sp)
    144e:	01841793          	slli	a5,s0,0x18
    1452:	87e1                	srai	a5,a5,0x18
    1454:	c23e                	sw	a5,4(sp)
    1456:	45a2                	lw	a1,8(sp)
    1458:	01831513          	slli	a0,t1,0x18
    145c:	8561                	srai	a0,a0,0x18
    145e:	ce1e                	sw	t2,28(sp)
    1460:	cc1a                	sw	t1,24(sp)
    1462:	979ff0ef          	jal	ra,dda <Scan_Piece_Matrix_TTRIS>
    1466:	4785                	li	a5,1
    1468:	4362                	lw	t1,24(sp)
    146a:	43f2                	lw	t2,28(sp)
    146c:	02f51563          	bne	a0,a5,1496 <NEXT_BLOCK_TTRIS+0xa2>
    1470:	47b2                	lw	a5,12(sp)
    1472:	00131513          	slli	a0,t1,0x1
    1476:	46d2                	lw	a3,20(sp)
    1478:	953e                	add	a0,a0,a5
    147a:	4642                	lw	a2,16(sp)
    147c:	4592                	lw	a1,4(sp)
    147e:	6791                	lui	a5,0x4
    1480:	0562                	slli	a0,a0,0x18
    1482:	c9478793          	addi	a5,a5,-876 # 3c94 <tiny_PREVIEW_block_TTTRIS>
    1486:	4701                	li	a4,0
    1488:	8561                	srai	a0,a0,0x18
    148a:	3dad                	jal	1304 <blitzSprite_TTRIS>
    148c:	43f2                	lw	t2,28(sp)
    148e:	4362                	lw	t1,24(sp)
    1490:	8cc9                	or	s1,s1,a0
    1492:	0ff4f493          	andi	s1,s1,255
    1496:	0305                	addi	t1,t1,1
    1498:	0ff37313          	andi	t1,t1,255
    149c:	4795                	li	a5,5
    149e:	faf31ce3          	bne	t1,a5,1456 <NEXT_BLOCK_TTRIS+0x62>
    14a2:	0385                	addi	t2,t2,1
    14a4:	0409                	addi	s0,s0,2
    14a6:	0ff3f393          	andi	t2,t2,255
    14aa:	0ff47413          	andi	s0,s0,255
    14ae:	f8f39ae3          	bne	t2,a5,1442 <NEXT_BLOCK_TTRIS+0x4e>
    14b2:	8526                	mv	a0,s1
    14b4:	6105                	addi	sp,sp,32
    14b6:	bf5fe06f          	j	aa <__riscv_restore_0>
    14ba:	4401                	li	s0,0
    14bc:	4681                	li	a3,0
    14be:	b795                	j	1422 <NEXT_BLOCK_TTRIS+0x2e>

000014c0 <DropPiece_TTRIS>:
    14c0:	be1fe2ef          	jal	t0,a0 <__riscv_save_0>
    14c4:	86e1c783          	lbu	a5,-1938(gp) # 200000d6 <xx_TTRIS>
    14c8:	1101                	addi	sp,sp,-32
    14ca:	c62a                	sw	a0,12(sp)
    14cc:	c03e                	sw	a5,0(sp)
    14ce:	86f1c783          	lbu	a5,-1937(gp) # 200000d7 <yy_TTRIS>
    14d2:	c82e                	sw	a1,16(sp)
    14d4:	4401                	li	s0,0
    14d6:	17ed                	addi	a5,a5,-5
    14d8:	0ff7f393          	andi	t2,a5,255
    14dc:	85018793          	addi	a5,gp,-1968 # 200000b8 <Piece_Mat2_TTRIS>
    14e0:	01978293          	addi	t0,a5,25
    14e4:	07f9                	addi	a5,a5,30
    14e6:	c43e                	sw	a5,8(sp)
    14e8:	01839793          	slli	a5,t2,0x18
    14ec:	4482                	lw	s1,0(sp)
    14ee:	87e1                	srai	a5,a5,0x18
    14f0:	c23e                	sw	a5,4(sp)
    14f2:	fe728313          	addi	t1,t0,-25 # 2fe7 <epd_bitmap_logo+0x97>
    14f6:	00034783          	lbu	a5,0(t1) # 3000 <epd_bitmap_logo+0xb0>
    14fa:	4705                	li	a4,1
    14fc:	02e79663          	bne	a5,a4,1528 <DropPiece_TTRIS+0x68>
    1500:	46c2                	lw	a3,16(sp)
    1502:	4632                	lw	a2,12(sp)
    1504:	4592                	lw	a1,4(sp)
    1506:	6791                	lui	a5,0x4
    1508:	01849513          	slli	a0,s1,0x18
    150c:	c9878793          	addi	a5,a5,-872 # 3c98 <tinyblock2_TTTRIS>
    1510:	4701                	li	a4,0
    1512:	8561                	srai	a0,a0,0x18
    1514:	ce1e                	sw	t2,28(sp)
    1516:	cc16                	sw	t0,24(sp)
    1518:	ca1a                	sw	t1,20(sp)
    151a:	33ed                	jal	1304 <blitzSprite_TTRIS>
    151c:	43f2                	lw	t2,28(sp)
    151e:	42e2                	lw	t0,24(sp)
    1520:	4352                	lw	t1,20(sp)
    1522:	8c49                	or	s0,s0,a0
    1524:	0ff47413          	andi	s0,s0,255
    1528:	048d                	addi	s1,s1,3
    152a:	0315                	addi	t1,t1,5
    152c:	0ff4f493          	andi	s1,s1,255
    1530:	fc5313e3          	bne	t1,t0,14f6 <DropPiece_TTRIS+0x36>
    1534:	00338793          	addi	a5,t2,3
    1538:	0ff7f393          	andi	t2,a5,255
    153c:	47a2                	lw	a5,8(sp)
    153e:	00130293          	addi	t0,t1,1
    1542:	faf293e3          	bne	t0,a5,14e8 <DropPiece_TTRIS+0x28>
    1546:	8522                	mv	a0,s0
    1548:	6105                	addi	sp,sp,32
    154a:	b61fe06f          	j	aa <__riscv_restore_0>

0000154e <recupe_SCORES_TTRIS>:
    154e:	fa150793          	addi	a5,a0,-95
    1552:	0ff7f793          	andi	a5,a5,255
    1556:	4761                	li	a4,24
    1558:	1af76d63          	bltu	a4,a5,1712 <recupe_SCORES_TTRIS+0x1c4>
    155c:	4785                	li	a5,1
    155e:	4301                	li	t1,0
    1560:	1ab7ea63          	bltu	a5,a1,1714 <recupe_SCORES_TTRIS+0x1c6>
    1564:	b3dfe2ef          	jal	t0,a0 <__riscv_save_0>
    1568:	86c1d783          	lhu	a5,-1940(gp) # 200000d4 <Scores_TTRIS>
    156c:	84ae                	mv	s1,a1
    156e:	6589                	lui	a1,0x2
    1570:	1101                	addi	sp,sp,-32
    1572:	842a                	mv	s0,a0
    1574:	71058593          	addi	a1,a1,1808 # 2710 <USART_Init+0xcc>
    1578:	853e                	mv	a0,a5
    157a:	c03e                	sw	a5,0(sp)
    157c:	b59fe0ef          	jal	ra,d4 <__udivsi3>
    1580:	01051313          	slli	t1,a0,0x10
    1584:	01035313          	srli	t1,t1,0x10
    1588:	0ff37793          	andi	a5,t1,255
    158c:	c43e                	sw	a5,8(sp)
    158e:	4722                	lw	a4,8(sp)
    1590:	6791                	lui	a5,0x4
    1592:	86a6                	mv	a3,s1
    1594:	8622                	mv	a2,s0
    1596:	c6878793          	addi	a5,a5,-920 # 3c68 <police_TTRIS>
    159a:	45a1                	li	a1,8
    159c:	05f00513          	li	a0,95
    15a0:	c21a                	sw	t1,4(sp)
    15a2:	338d                	jal	1304 <blitzSprite_TTRIS>
    15a4:	4312                	lw	t1,4(sp)
    15a6:	75f9                	lui	a1,0xffffe
    15a8:	c62a                	sw	a0,12(sp)
    15aa:	8f058593          	addi	a1,a1,-1808 # ffffd8f0 <__global_pointer$+0xdfffd088>
    15ae:	851a                	mv	a0,t1
    15b0:	b05fe0ef          	jal	ra,b4 <__mulsi3>
    15b4:	4702                	lw	a4,0(sp)
    15b6:	c22a                	sw	a0,4(sp)
    15b8:	3e800593          	li	a1,1000
    15bc:	00a70333          	add	t1,a4,a0
    15c0:	851a                	mv	a0,t1
    15c2:	c81a                	sw	t1,16(sp)
    15c4:	b09fe0ef          	jal	ra,cc <__divsi3>
    15c8:	6791                	lui	a5,0x4
    15ca:	86a6                	mv	a3,s1
    15cc:	8622                	mv	a2,s0
    15ce:	c6878793          	addi	a5,a5,-920 # 3c68 <police_TTRIS>
    15d2:	0ff57713          	andi	a4,a0,255
    15d6:	45a1                	li	a1,8
    15d8:	06300513          	li	a0,99
    15dc:	3325                	jal	1304 <blitzSprite_TTRIS>
    15de:	42b2                	lw	t0,12(sp)
    15e0:	4342                	lw	t1,16(sp)
    15e2:	c1800593          	li	a1,-1000
    15e6:	00a2e533          	or	a0,t0,a0
    15ea:	0ff57713          	andi	a4,a0,255
    15ee:	851a                	mv	a0,t1
    15f0:	c63a                	sw	a4,12(sp)
    15f2:	adbfe0ef          	jal	ra,cc <__divsi3>
    15f6:	00551313          	slli	t1,a0,0x5
    15fa:	40a30333          	sub	t1,t1,a0
    15fe:	4702                	lw	a4,0(sp)
    1600:	030a                	slli	t1,t1,0x2
    1602:	932a                	add	t1,t1,a0
    1604:	030e                	slli	t1,t1,0x3
    1606:	006703b3          	add	t2,a4,t1
    160a:	4712                	lw	a4,4(sp)
    160c:	ce2a                	sw	a0,28(sp)
    160e:	06400593          	li	a1,100
    1612:	93ba                	add	t2,t2,a4
    1614:	851e                	mv	a0,t2
    1616:	cc1a                	sw	t1,24(sp)
    1618:	ca1e                	sw	t2,20(sp)
    161a:	ab3fe0ef          	jal	ra,cc <__divsi3>
    161e:	6791                	lui	a5,0x4
    1620:	8622                	mv	a2,s0
    1622:	86a6                	mv	a3,s1
    1624:	c6878793          	addi	a5,a5,-920 # 3c68 <police_TTRIS>
    1628:	0ff57713          	andi	a4,a0,255
    162c:	45a1                	li	a1,8
    162e:	06700513          	li	a0,103
    1632:	39c9                	jal	1304 <blitzSprite_TTRIS>
    1634:	4732                	lw	a4,12(sp)
    1636:	43d2                	lw	t2,20(sp)
    1638:	f9c00593          	li	a1,-100
    163c:	8d59                	or	a0,a0,a4
    163e:	0ff57713          	andi	a4,a0,255
    1642:	851e                	mv	a0,t2
    1644:	c83a                	sw	a4,16(sp)
    1646:	a87fe0ef          	jal	ra,cc <__divsi3>
    164a:	00151793          	slli	a5,a0,0x1
    164e:	97aa                	add	a5,a5,a0
    1650:	4682                	lw	a3,0(sp)
    1652:	078e                	slli	a5,a5,0x3
    1654:	97aa                	add	a5,a5,a0
    1656:	4362                	lw	t1,24(sp)
    1658:	00279713          	slli	a4,a5,0x2
    165c:	00d703b3          	add	t2,a4,a3
    1660:	c63a                	sw	a4,12(sp)
    1662:	4712                	lw	a4,4(sp)
    1664:	939a                	add	t2,t2,t1
    1666:	45a9                	li	a1,10
    1668:	93ba                	add	t2,t2,a4
    166a:	851e                	mv	a0,t2
    166c:	ca1e                	sw	t2,20(sp)
    166e:	a5ffe0ef          	jal	ra,cc <__divsi3>
    1672:	6791                	lui	a5,0x4
    1674:	8622                	mv	a2,s0
    1676:	0ff57713          	andi	a4,a0,255
    167a:	86a6                	mv	a3,s1
    167c:	c6878793          	addi	a5,a5,-920 # 3c68 <police_TTRIS>
    1680:	45a1                	li	a1,8
    1682:	06b00513          	li	a0,107
    1686:	39bd                	jal	1304 <blitzSprite_TTRIS>
    1688:	4742                	lw	a4,16(sp)
    168a:	42f2                	lw	t0,28(sp)
    168c:	4682                	lw	a3,0(sp)
    168e:	8d59                	or	a0,a0,a4
    1690:	4722                	lw	a4,8(sp)
    1692:	00229793          	slli	a5,t0,0x2
    1696:	43d2                	lw	t2,20(sp)
    1698:	0712                	slli	a4,a4,0x4
    169a:	40f282b3          	sub	t0,t0,a5
    169e:	40e68733          	sub	a4,a3,a4
    16a2:	46b2                	lw	a3,12(sp)
    16a4:	028e                	slli	t0,t0,0x3
    16a6:	9716                	add	a4,a4,t0
    16a8:	0ff57313          	andi	t1,a0,255
    16ac:	9736                	add	a4,a4,a3
    16ae:	851e                	mv	a0,t2
    16b0:	55d9                	li	a1,-10
    16b2:	c21a                	sw	t1,4(sp)
    16b4:	c03a                	sw	a4,0(sp)
    16b6:	a17fe0ef          	jal	ra,cc <__divsi3>
    16ba:	4702                	lw	a4,0(sp)
    16bc:	00251793          	slli	a5,a0,0x2
    16c0:	953e                	add	a0,a0,a5
    16c2:	0506                	slli	a0,a0,0x1
    16c4:	972a                	add	a4,a4,a0
    16c6:	6791                	lui	a5,0x4
    16c8:	86a6                	mv	a3,s1
    16ca:	8622                	mv	a2,s0
    16cc:	c6878793          	addi	a5,a5,-920 # 3c68 <police_TTRIS>
    16d0:	0ff77713          	andi	a4,a4,255
    16d4:	45a1                	li	a1,8
    16d6:	06f00513          	li	a0,111
    16da:	c2bff0ef          	jal	ra,1304 <blitzSprite_TTRIS>
    16de:	4312                	lw	t1,4(sp)
    16e0:	6791                	lui	a5,0x4
    16e2:	c6878793          	addi	a5,a5,-920 # 3c68 <police_TTRIS>
    16e6:	00a36333          	or	t1,t1,a0
    16ea:	0ff37313          	andi	t1,t1,255
    16ee:	4701                	li	a4,0
    16f0:	86a6                	mv	a3,s1
    16f2:	8622                	mv	a2,s0
    16f4:	45a1                	li	a1,8
    16f6:	07300513          	li	a0,115
    16fa:	c01a                	sw	t1,0(sp)
    16fc:	c09ff0ef          	jal	ra,1304 <blitzSprite_TTRIS>
    1700:	4302                	lw	t1,0(sp)
    1702:	6105                	addi	sp,sp,32
    1704:	00a36333          	or	t1,t1,a0
    1708:	0ff37313          	andi	t1,t1,255
    170c:	851a                	mv	a0,t1
    170e:	99dfe06f          	j	aa <__riscv_restore_0>
    1712:	4301                	li	t1,0
    1714:	851a                	mv	a0,t1
    1716:	8082                	ret

00001718 <Convert_Nb_of_line_TTRIS>:
    1718:	989fe2ef          	jal	t0,a0 <__riscv_save_0>
    171c:	8401d483          	lhu	s1,-1984(gp) # 200000a8 <Nb_of_line_F_TTRIS>
    1720:	1171                	addi	sp,sp,-4
    1722:	06400593          	li	a1,100
    1726:	8526                	mv	a0,s1
    1728:	9adfe0ef          	jal	ra,d4 <__udivsi3>
    172c:	0ff57713          	andi	a4,a0,255
    1730:	00171513          	slli	a0,a4,0x1
    1734:	953a                	add	a0,a0,a4
    1736:	050e                	slli	a0,a0,0x3
    1738:	953a                	add	a0,a0,a4
    173a:	84418413          	addi	s0,gp,-1980 # 200000ac <Nb_of_line_TTRIS>
    173e:	050a                	slli	a0,a0,0x2
    1740:	a038                	sb	a4,2(s0)
    1742:	45a9                	li	a1,10
    1744:	40a48533          	sub	a0,s1,a0
    1748:	c03a                	sw	a4,0(sp)
    174a:	983fe0ef          	jal	ra,cc <__divsi3>
    174e:	4702                	lw	a4,0(sp)
    1750:	0ff57513          	andi	a0,a0,255
    1754:	b008                	sb	a0,1(s0)
    1756:	00271793          	slli	a5,a4,0x2
    175a:	97ba                	add	a5,a5,a4
    175c:	078e                	slli	a5,a5,0x3
    175e:	8f99                	sub	a5,a5,a4
    1760:	00251713          	slli	a4,a0,0x2
    1764:	953a                	add	a0,a0,a4
    1766:	078a                	slli	a5,a5,0x2
    1768:	97a6                	add	a5,a5,s1
    176a:	0506                	slli	a0,a0,0x1
    176c:	8f89                	sub	a5,a5,a0
    176e:	a01c                	sb	a5,0(s0)
    1770:	0111                	addi	sp,sp,4
    1772:	939fe06f          	j	aa <__riscv_restore_0>

00001776 <recupe_Nb_of_line_TTRIS>:
    1776:	ff050793          	addi	a5,a0,-16
    177a:	0ff7f793          	andi	a5,a5,255
    177e:	4731                	li	a4,12
    1780:	06f76e63          	bltu	a4,a5,17fc <recupe_Nb_of_line_TTRIS+0x86>
    1784:	91dfe2ef          	jal	t0,a0 <__riscv_save_0>
    1788:	4785                	li	a5,1
    178a:	84aa                	mv	s1,a0
    178c:	1171                	addi	sp,sp,-4
    178e:	4501                	li	a0,0
    1790:	06b7e363          	bltu	a5,a1,17f6 <recupe_Nb_of_line_TTRIS+0x80>
    1794:	84418293          	addi	t0,gp,-1980 # 200000ac <Nb_of_line_TTRIS>
    1798:	0022c703          	lbu	a4,2(t0)
    179c:	6391                	lui	t2,0x4
    179e:	c6838793          	addi	a5,t2,-920 # 3c68 <police_TTRIS>
    17a2:	86ae                	mv	a3,a1
    17a4:	c02e                	sw	a1,0(sp)
    17a6:	8626                	mv	a2,s1
    17a8:	45a1                	li	a1,8
    17aa:	4541                	li	a0,16
    17ac:	b59ff0ef          	jal	ra,1304 <blitzSprite_TTRIS>
    17b0:	84418293          	addi	t0,gp,-1980 # 200000ac <Nb_of_line_TTRIS>
    17b4:	4302                	lw	t1,0(sp)
    17b6:	0012c703          	lbu	a4,1(t0)
    17ba:	6391                	lui	t2,0x4
    17bc:	c6838793          	addi	a5,t2,-920 # 3c68 <police_TTRIS>
    17c0:	869a                	mv	a3,t1
    17c2:	842a                	mv	s0,a0
    17c4:	8626                	mv	a2,s1
    17c6:	45a1                	li	a1,8
    17c8:	4551                	li	a0,20
    17ca:	b3bff0ef          	jal	ra,1304 <blitzSprite_TTRIS>
    17ce:	84418293          	addi	t0,gp,-1980 # 200000ac <Nb_of_line_TTRIS>
    17d2:	4302                	lw	t1,0(sp)
    17d4:	0002c703          	lbu	a4,0(t0)
    17d8:	6391                	lui	t2,0x4
    17da:	8c49                	or	s0,s0,a0
    17dc:	c6838793          	addi	a5,t2,-920 # 3c68 <police_TTRIS>
    17e0:	869a                	mv	a3,t1
    17e2:	8626                	mv	a2,s1
    17e4:	45a1                	li	a1,8
    17e6:	4561                	li	a0,24
    17e8:	0ff47413          	andi	s0,s0,255
    17ec:	b19ff0ef          	jal	ra,1304 <blitzSprite_TTRIS>
    17f0:	8d41                	or	a0,a0,s0
    17f2:	0ff57513          	andi	a0,a0,255
    17f6:	0111                	addi	sp,sp,4
    17f8:	8b3fe06f          	j	aa <__riscv_restore_0>
    17fc:	4501                	li	a0,0
    17fe:	8082                	ret

00001800 <recupe_LEVEL_TTRIS>:
    1800:	f9350793          	addi	a5,a0,-109
    1804:	0ff7f793          	andi	a5,a5,255
    1808:	4725                	li	a4,9
    180a:	06f76863          	bltu	a4,a5,187a <recupe_LEVEL_TTRIS+0x7a>
    180e:	893fe2ef          	jal	t0,a0 <__riscv_save_0>
    1812:	4795                	li	a5,5
    1814:	842a                	mv	s0,a0
    1816:	1161                	addi	sp,sp,-8
    1818:	4501                	li	a0,0
    181a:	04f59d63          	bne	a1,a5,1874 <recupe_LEVEL_TTRIS+0x74>
    181e:	83e1c283          	lbu	t0,-1986(gp) # 200000a6 <Level_TTRIS>
    1822:	45a9                	li	a1,10
    1824:	6491                	lui	s1,0x4
    1826:	8516                	mv	a0,t0
    1828:	c216                	sw	t0,4(sp)
    182a:	8abfe0ef          	jal	ra,d4 <__udivsi3>
    182e:	0ff57713          	andi	a4,a0,255
    1832:	c6848793          	addi	a5,s1,-920 # 3c68 <police_TTRIS>
    1836:	4695                	li	a3,5
    1838:	8622                	mv	a2,s0
    183a:	02900593          	li	a1,41
    183e:	06d00513          	li	a0,109
    1842:	ac3ff0ef          	jal	ra,1304 <blitzSprite_TTRIS>
    1846:	4292                	lw	t0,4(sp)
    1848:	c02a                	sw	a0,0(sp)
    184a:	45a9                	li	a1,10
    184c:	8516                	mv	a0,t0
    184e:	8b3fe0ef          	jal	ra,100 <__umodsi3>
    1852:	0ff57713          	andi	a4,a0,255
    1856:	c6848793          	addi	a5,s1,-920
    185a:	4695                	li	a3,5
    185c:	8622                	mv	a2,s0
    185e:	02900593          	li	a1,41
    1862:	07200513          	li	a0,114
    1866:	a9fff0ef          	jal	ra,1304 <blitzSprite_TTRIS>
    186a:	4302                	lw	t1,0(sp)
    186c:	00a36533          	or	a0,t1,a0
    1870:	0ff57513          	andi	a0,a0,255
    1874:	0121                	addi	sp,sp,8
    1876:	835fe06f          	j	aa <__riscv_restore_0>
    187a:	4501                	li	a0,0
    187c:	8082                	ret

0000187e <Recupe_TTRIS>:
    187e:	823fe2ef          	jal	t0,a0 <__riscv_save_0>
    1882:	6791                	lui	a5,0x4
    1884:	00159713          	slli	a4,a1,0x1
    1888:	c3478793          	addi	a5,a5,-972 # 3c34 <MEM_TTTRIS>
    188c:	97ba                	add	a5,a5,a4
    188e:	0007c303          	lbu	t1,0(a5)
    1892:	339c                	lbu	a5,1(a5)
    1894:	1121                	addi	sp,sp,-24
    1896:	84aa                	mv	s1,a0
    1898:	c23e                	sw	a5,4(sp)
    189a:	fd250793          	addi	a5,a0,-46
    189e:	0ff7f793          	andi	a5,a5,255
    18a2:	c43e                	sw	a5,8(sp)
    18a4:	6791                	lui	a5,0x4
    18a6:	c0c78793          	addi	a5,a5,-1012 # 3c0c <H_Grid_TTTRIS>
    18aa:	97aa                	add	a5,a5,a0
    18ac:	842e                	mv	s0,a1
    18ae:	c002                	sw	zero,0(sp)
    18b0:	c63e                	sw	a5,12(sp)
    18b2:	4792                	lw	a5,4(sp)
    18b4:	00f36c63          	bltu	t1,a5,18cc <Recupe_TTRIS+0x4e>
    18b8:	85a2                	mv	a1,s0
    18ba:	8526                	mv	a0,s1
    18bc:	c05ff0ef          	jal	ra,14c0 <DropPiece_TTRIS>
    18c0:	678d                	lui	a5,0x3
    18c2:	041e                	slli	s0,s0,0x7
    18c4:	7f878793          	addi	a5,a5,2040 # 37f8 <BACKGROUND_TTRIS>
    18c8:	943e                	add	s0,s0,a5
    18ca:	a07d                	j	1978 <Recupe_TTRIS+0xfa>
    18cc:	47a2                	lw	a5,8(sp)
    18ce:	02300713          	li	a4,35
    18d2:	06f76463          	bltu	a4,a5,193a <Recupe_TTRIS+0xbc>
    18d6:	47b2                	lw	a5,12(sp)
    18d8:	01831593          	slli	a1,t1,0x18
    18dc:	85e1                	srai	a1,a1,0x18
    18de:	fd27c783          	lbu	a5,-46(a5)
    18e2:	ca1a                	sw	t1,20(sp)
    18e4:	01879513          	slli	a0,a5,0x18
    18e8:	8561                	srai	a0,a0,0x18
    18ea:	c83e                	sw	a5,16(sp)
    18ec:	deaff0ef          	jal	ra,ed6 <GRID_STAT_TTRIS>
    18f0:	4705                	li	a4,1
    18f2:	47c2                	lw	a5,16(sp)
    18f4:	4352                	lw	t1,20(sp)
    18f6:	02e51e63          	bne	a0,a4,1932 <Recupe_TTRIS+0xb4>
    18fa:	00131593          	slli	a1,t1,0x1
    18fe:	00179513          	slli	a0,a5,0x1
    1902:	959a                	add	a1,a1,t1
    1904:	953e                	add	a0,a0,a5
    1906:	0595                	addi	a1,a1,5
    1908:	02e50513          	addi	a0,a0,46
    190c:	6791                	lui	a5,0x4
    190e:	05e2                	slli	a1,a1,0x18
    1910:	0562                	slli	a0,a0,0x18
    1912:	ca078793          	addi	a5,a5,-864 # 3ca0 <tinyblock_TTTRIS>
    1916:	4701                	li	a4,0
    1918:	86a2                	mv	a3,s0
    191a:	8626                	mv	a2,s1
    191c:	85e1                	srai	a1,a1,0x18
    191e:	8561                	srai	a0,a0,0x18
    1920:	c81a                	sw	t1,16(sp)
    1922:	9e3ff0ef          	jal	ra,1304 <blitzSprite_TTRIS>
    1926:	4782                	lw	a5,0(sp)
    1928:	4342                	lw	t1,16(sp)
    192a:	8d5d                	or	a0,a0,a5
    192c:	0ff57793          	andi	a5,a0,255
    1930:	c03e                	sw	a5,0(sp)
    1932:	0305                	addi	t1,t1,1
    1934:	0ff37313          	andi	t1,t1,255
    1938:	bfad                	j	18b2 <Recupe_TTRIS+0x34>
    193a:	85a2                	mv	a1,s0
    193c:	8526                	mv	a0,s1
    193e:	ab7ff0ef          	jal	ra,13f4 <NEXT_BLOCK_TTRIS>
    1942:	85a2                	mv	a1,s0
    1944:	c02a                	sw	a0,0(sp)
    1946:	8526                	mv	a0,s1
    1948:	353d                	jal	1776 <recupe_Nb_of_line_TTRIS>
    194a:	4782                	lw	a5,0(sp)
    194c:	85a2                	mv	a1,s0
    194e:	8fc9                	or	a5,a5,a0
    1950:	0ff7f793          	andi	a5,a5,255
    1954:	8526                	mv	a0,s1
    1956:	c03e                	sw	a5,0(sp)
    1958:	bf7ff0ef          	jal	ra,154e <recupe_SCORES_TTRIS>
    195c:	4782                	lw	a5,0(sp)
    195e:	85a2                	mv	a1,s0
    1960:	8fc9                	or	a5,a5,a0
    1962:	0ff7f793          	andi	a5,a5,255
    1966:	8526                	mv	a0,s1
    1968:	c03e                	sw	a5,0(sp)
    196a:	3d59                	jal	1800 <recupe_LEVEL_TTRIS>
    196c:	00741713          	slli	a4,s0,0x7
    1970:	640d                	lui	s0,0x3
    1972:	7f840413          	addi	s0,s0,2040 # 37f8 <BACKGROUND_TTRIS>
    1976:	943a                	add	s0,s0,a4
    1978:	4782                	lw	a5,0(sp)
    197a:	94a2                	add	s1,s1,s0
    197c:	8d5d                	or	a0,a0,a5
    197e:	209c                	lbu	a5,0(s1)
    1980:	0161                	addi	sp,sp,24
    1982:	8d5d                	or	a0,a0,a5
    1984:	0ff57513          	andi	a0,a0,255
    1988:	f22fe06f          	j	aa <__riscv_restore_0>

0000198c <Tiny_Flip_TTRIS>:
    198c:	f14fe2ef          	jal	t0,a0 <__riscv_save_0>
    1990:	1171                	addi	sp,sp,-4
    1992:	84aa                	mv	s1,a0
    1994:	4401                	li	s0,0
    1996:	85a2                	mv	a1,s0
    1998:	4501                	li	a0,0
    199a:	9acff0ef          	jal	ra,b46 <OLED_setpos>
    199e:	990ff0ef          	jal	ra,b2e <OLED_data_start>
    19a2:	4781                	li	a5,0
    19a4:	00979d63          	bne	a5,s1,19be <Tiny_Flip_TTRIS+0x32>
    19a8:	a5dfe0ef          	jal	ra,404 <I2C_stop>
    19ac:	0405                	addi	s0,s0,1
    19ae:	0ff47413          	andi	s0,s0,255
    19b2:	47a1                	li	a5,8
    19b4:	fef411e3          	bne	s0,a5,1996 <Tiny_Flip_TTRIS+0xa>
    19b8:	0111                	addi	sp,sp,4
    19ba:	ef0fe06f          	j	aa <__riscv_restore_0>
    19be:	853e                	mv	a0,a5
    19c0:	85a2                	mv	a1,s0
    19c2:	c03e                	sw	a5,0(sp)
    19c4:	3d6d                	jal	187e <Recupe_TTRIS>
    19c6:	a27fe0ef          	jal	ra,3ec <I2C_write>
    19ca:	4782                	lw	a5,0(sp)
    19cc:	0785                	addi	a5,a5,1
    19ce:	0ff7f793          	andi	a5,a5,255
    19d2:	bfc9                	j	19a4 <Tiny_Flip_TTRIS+0x18>

000019d4 <FLASH_LINE_TTRIS>:
    19d4:	eccfe2ef          	jal	t0,a0 <__riscv_save_0>
    19d8:	84aa                	mv	s1,a0
    19da:	4415                	li	s0,5
    19dc:	85a6                	mv	a1,s1
    19de:	4505                	li	a0,1
    19e0:	82fff0ef          	jal	ra,120e <PAINT_LINE_TTRIS>
    19e4:	05200513          	li	a0,82
    19e8:	3755                	jal	198c <Tiny_Flip_TTRIS>
    19ea:	85a6                	mv	a1,s1
    19ec:	4501                	li	a0,0
    19ee:	821ff0ef          	jal	ra,120e <PAINT_LINE_TTRIS>
    19f2:	147d                	addi	s0,s0,-1
    19f4:	05200513          	li	a0,82
    19f8:	0ff47413          	andi	s0,s0,255
    19fc:	3f41                	jal	198c <Tiny_Flip_TTRIS>
    19fe:	fc79                	bnez	s0,19dc <FLASH_LINE_TTRIS+0x8>
    1a00:	eaafe06f          	j	aa <__riscv_restore_0>

00001a04 <DELETE_LINE_TTRIS>:
    1a04:	e9cfe2ef          	jal	t0,a0 <__riscv_save_0>
    1a08:	fdc10113          	addi	sp,sp,-36
    1a0c:	464d                	li	a2,19
    1a0e:	4581                	li	a1,0
    1a10:	0808                	addi	a0,sp,16
    1a12:	f38fe0ef          	jal	ra,14a <memset>
    1a16:	4481                	li	s1,0
    1a18:	4701                	li	a4,0
    1a1a:	4285                	li	t0,1
    1a1c:	01849693          	slli	a3,s1,0x18
    1a20:	4785                	li	a5,1
    1a22:	4401                	li	s0,0
    1a24:	86e1                	srai	a3,a3,0x18
    1a26:	01841513          	slli	a0,s0,0x18
    1a2a:	85b6                	mv	a1,a3
    1a2c:	8561                	srai	a0,a0,0x18
    1a2e:	c616                	sw	t0,12(sp)
    1a30:	c43a                	sw	a4,8(sp)
    1a32:	c23e                	sw	a5,4(sp)
    1a34:	c036                	sw	a3,0(sp)
    1a36:	ca0ff0ef          	jal	ra,ed6 <GRID_STAT_TTRIS>
    1a3a:	4682                	lw	a3,0(sp)
    1a3c:	4792                	lw	a5,4(sp)
    1a3e:	4722                	lw	a4,8(sp)
    1a40:	4631                	li	a2,12
    1a42:	434d                	li	t1,19
    1a44:	42b2                	lw	t0,12(sp)
    1a46:	e111                	bnez	a0,1a4a <DELETE_LINE_TTRIS+0x46>
    1a48:	4781                	li	a5,0
    1a4a:	0405                	addi	s0,s0,1
    1a4c:	0ff47413          	andi	s0,s0,255
    1a50:	fcc41be3          	bne	s0,a2,1a26 <DELETE_LINE_TTRIS+0x22>
    1a54:	c791                	beqz	a5,1a60 <DELETE_LINE_TTRIS+0x5c>
    1a56:	0818                	addi	a4,sp,16
    1a58:	9726                	add	a4,a4,s1
    1a5a:	00570023          	sb	t0,0(a4)
    1a5e:	873e                	mv	a4,a5
    1a60:	0485                	addi	s1,s1,1
    1a62:	fa649de3          	bne	s1,t1,1a1c <DELETE_LINE_TTRIS+0x18>
    1a66:	4785                	li	a5,1
    1a68:	00f71763          	bne	a4,a5,1a76 <DELETE_LINE_TTRIS+0x72>
    1a6c:	0808                	addi	a0,sp,16
    1a6e:	379d                	jal	19d4 <FLASH_LINE_TTRIS>
    1a70:	0808                	addi	a0,sp,16
    1a72:	ff0ff0ef          	jal	ra,1262 <Clean_Grid_TTRIS>
    1a76:	4781                	li	a5,0
    1a78:	4501                	li	a0,0
    1a7a:	4685                	li	a3,1
    1a7c:	474d                	li	a4,19
    1a7e:	0810                	addi	a2,sp,16
    1a80:	963e                	add	a2,a2,a5
    1a82:	2210                	lbu	a2,0(a2)
    1a84:	00d61563          	bne	a2,a3,1a8e <DELETE_LINE_TTRIS+0x8a>
    1a88:	0505                	addi	a0,a0,1
    1a8a:	0ff57513          	andi	a0,a0,255
    1a8e:	0785                	addi	a5,a5,1
    1a90:	fee797e3          	bne	a5,a4,1a7e <DELETE_LINE_TTRIS+0x7a>
    1a94:	84018793          	addi	a5,gp,-1984 # 200000a8 <Nb_of_line_F_TTRIS>
    1a98:	239a                	lhu	a4,0(a5)
    1a9a:	972a                	add	a4,a4,a0
    1a9c:	a39a                	sh	a4,0(a5)
    1a9e:	a90ff0ef          	jal	ra,d2e <Calcul_of_Score_TTRIS>
    1aa2:	86c18793          	addi	a5,gp,-1940 # 200000d4 <Scores_TTRIS>
    1aa6:	239a                	lhu	a4,0(a5)
    1aa8:	953a                	add	a0,a0,a4
    1aaa:	a38a                	sh	a0,0(a5)
    1aac:	02410113          	addi	sp,sp,36
    1ab0:	dfafe06f          	j	aa <__riscv_restore_0>

00001ab4 <END_DROP_TTRIS>:
    1ab4:	decfe2ef          	jal	t0,a0 <__riscv_save_0>
    1ab8:	1161                	addi	sp,sp,-8
    1aba:	80018a23          	sb	zero,-2028(gp) # 2000007c <DROP_BREAK_TTRIS>
    1abe:	4481                	li	s1,0
    1ac0:	85018713          	addi	a4,gp,-1968 # 200000b8 <Piece_Mat2_TTRIS>
    1ac4:	0ff4f313          	andi	t1,s1,255
    1ac8:	009707b3          	add	a5,a4,s1
    1acc:	4401                	li	s0,0
    1ace:	238c                	lbu	a1,0(a5)
    1ad0:	4605                	li	a2,1
    1ad2:	02c59563          	bne	a1,a2,1afc <END_DROP_TTRIS+0x48>
    1ad6:	84a1c583          	lbu	a1,-1974(gp) # 200000b2 <OU_SUIS_JE_Y_TTRIS>
    1ada:	8481c503          	lbu	a0,-1976(gp) # 200000b0 <OU_SUIS_JE_X_TTRIS>
    1ade:	4605                	li	a2,1
    1ae0:	959a                	add	a1,a1,t1
    1ae2:	9522                	add	a0,a0,s0
    1ae4:	05e2                	slli	a1,a1,0x18
    1ae6:	0562                	slli	a0,a0,0x18
    1ae8:	85e1                	srai	a1,a1,0x18
    1aea:	8561                	srai	a0,a0,0x18
    1aec:	c23e                	sw	a5,4(sp)
    1aee:	c01a                	sw	t1,0(sp)
    1af0:	edaff0ef          	jal	ra,11ca <CHANGE_GRID_STAT_TTRIS>
    1af4:	85018713          	addi	a4,gp,-1968 # 200000b8 <Piece_Mat2_TTRIS>
    1af8:	4302                	lw	t1,0(sp)
    1afa:	4792                	lw	a5,4(sp)
    1afc:	0405                	addi	s0,s0,1
    1afe:	0ff47413          	andi	s0,s0,255
    1b02:	4615                	li	a2,5
    1b04:	0795                	addi	a5,a5,5
    1b06:	fcc414e3          	bne	s0,a2,1ace <END_DROP_TTRIS+0x1a>
    1b0a:	0485                	addi	s1,s1,1
    1b0c:	fa849ce3          	bne	s1,s0,1ac4 <END_DROP_TTRIS+0x10>
    1b10:	84a18603          	lb	a2,-1974(gp) # 200000b2 <OU_SUIS_JE_Y_TTRIS>
    1b14:	46a1                	li	a3,8
    1b16:	86c1d783          	lhu	a5,-1940(gp) # 200000d4 <Scores_TTRIS>
    1b1a:	86c18713          	addi	a4,gp,-1940 # 200000d4 <Scores_TTRIS>
    1b1e:	02c6c063          	blt	a3,a2,1b3e <END_DROP_TTRIS+0x8a>
    1b22:	0789                	addi	a5,a5,2
    1b24:	07c2                	slli	a5,a5,0x10
    1b26:	83c1                	srli	a5,a5,0x10
    1b28:	a31e                	sh	a5,0(a4)
    1b2a:	860187a3          	sb	zero,-1937(gp) # 200000d7 <yy_TTRIS>
    1b2e:	86018723          	sb	zero,-1938(gp) # 200000d6 <xx_TTRIS>
    1b32:	3dc9                	jal	1a04 <DELETE_LINE_TTRIS>
    1b34:	be5ff0ef          	jal	ra,1718 <Convert_Nb_of_line_TTRIS>
    1b38:	0121                	addi	sp,sp,8
    1b3a:	d70fe06f          	j	aa <__riscv_restore_0>
    1b3e:	0785                	addi	a5,a5,1
    1b40:	b7d5                	j	1b24 <END_DROP_TTRIS+0x70>

00001b42 <Move_Piece_TTRIS>:
    1b42:	d5efe2ef          	jal	t0,a0 <__riscv_save_0>
    1b46:	86f18583          	lb	a1,-1937(gp) # 200000d7 <yy_TTRIS>
    1b4a:	86e18503          	lb	a0,-1938(gp) # 200000d6 <xx_TTRIS>
    1b4e:	1171                	addi	sp,sp,-4
    1b50:	86f18493          	addi	s1,gp,-1937 # 200000d7 <yy_TTRIS>
    1b54:	9f6ff0ef          	jal	ra,d4a <Ou_suis_Je_TTRIS>
    1b58:	8471c703          	lbu	a4,-1977(gp) # 200000af <OU_SUIS_JE_X_ENGAGED_TTRIS>
    1b5c:	84718793          	addi	a5,gp,-1977 # 200000af <OU_SUIS_JE_X_ENGAGED_TTRIS>
    1b60:	c03e                	sw	a5,0(sp)
    1b62:	86e18413          	addi	s0,gp,-1938 # 200000d6 <xx_TTRIS>
    1b66:	81118793          	addi	a5,gp,-2031 # 20000079 <DEPLACEMENT_XX_TTRIS>
    1b6a:	eb11                	bnez	a4,1b7e <Move_Piece_TTRIS+0x3c>
    1b6c:	00078503          	lb	a0,0(a5)
    1b70:	bd0ff0ef          	jal	ra,f40 <Check_collision_x_TTRIS>
    1b74:	81118793          	addi	a5,gp,-2031 # 20000079 <DEPLACEMENT_XX_TTRIS>
    1b78:	c119                	beqz	a0,1b7e <Move_Piece_TTRIS+0x3c>
    1b7a:	00078023          	sb	zero,0(a5)
    1b7e:	00078683          	lb	a3,0(a5)
    1b82:	4605                	li	a2,1
    1b84:	00040703          	lb	a4,0(s0)
    1b88:	08c69463          	bne	a3,a2,1c10 <Move_Piece_TTRIS+0xce>
    1b8c:	0705                	addi	a4,a4,1
    1b8e:	a018                	sb	a4,0(s0)
    1b90:	00048583          	lb	a1,0(s1)
    1b94:	00040503          	lb	a0,0(s0)
    1b98:	9b2ff0ef          	jal	ra,d4a <Ou_suis_Je_TTRIS>
    1b9c:	4782                	lw	a5,0(sp)
    1b9e:	2398                	lbu	a4,0(a5)
    1ba0:	e709                	bnez	a4,1baa <Move_Piece_TTRIS+0x68>
    1ba2:	81118793          	addi	a5,gp,-2031 # 20000079 <DEPLACEMENT_XX_TTRIS>
    1ba6:	00078023          	sb	zero,0(a5)
    1baa:	81218503          	lb	a0,-2030(gp) # 2000007a <DEPLACEMENT_YY_TTRIS>
    1bae:	c12ff0ef          	jal	ra,fc0 <Check_collision_y_TTRIS>
    1bb2:	81218793          	addi	a5,gp,-2030 # 2000007a <DEPLACEMENT_YY_TTRIS>
    1bb6:	81418713          	addi	a4,gp,-2028 # 2000007c <DROP_BREAK_TTRIS>
    1bba:	c125                	beqz	a0,1c1a <Move_Piece_TTRIS+0xd8>
    1bbc:	82018e23          	sb	zero,-1988(gp) # 200000a4 <LONG_PRESS_X_TTRIS>
    1bc0:	86018523          	sb	zero,-1942(gp) # 200000d2 <Ripple_filter_TTRIS>
    1bc4:	05200513          	li	a0,82
    1bc8:	4699                	li	a3,6
    1bca:	00078023          	sb	zero,0(a5)
    1bce:	a314                	sb	a3,0(a4)
    1bd0:	dbdff0ef          	jal	ra,198c <Tiny_Flip_TTRIS>
    1bd4:	81218793          	addi	a5,gp,-2030 # 2000007a <DEPLACEMENT_YY_TTRIS>
    1bd8:	8151c703          	lbu	a4,-2027(gp) # 2000007d <DROP_SPEED_TTRIS>
    1bdc:	eb11                	bnez	a4,1bf0 <Move_Piece_TTRIS+0xae>
    1bde:	00078683          	lb	a3,0(a5)
    1be2:	567d                	li	a2,-1
    1be4:	00048703          	lb	a4,0(s1)
    1be8:	02c69c63          	bne	a3,a2,1c20 <Move_Piece_TTRIS+0xde>
    1bec:	177d                	addi	a4,a4,-1
    1bee:	a098                	sb	a4,0(s1)
    1bf0:	00048583          	lb	a1,0(s1)
    1bf4:	00040503          	lb	a0,0(s0)
    1bf8:	952ff0ef          	jal	ra,d4a <Ou_suis_Je_TTRIS>
    1bfc:	8491c703          	lbu	a4,-1975(gp) # 200000b1 <OU_SUIS_JE_Y_ENGAGED_TTRIS>
    1c00:	e709                	bnez	a4,1c0a <Move_Piece_TTRIS+0xc8>
    1c02:	81218793          	addi	a5,gp,-2030 # 2000007a <DEPLACEMENT_YY_TTRIS>
    1c06:	00078023          	sb	zero,0(a5)
    1c0a:	0111                	addi	sp,sp,4
    1c0c:	c9efe06f          	j	aa <__riscv_restore_0>
    1c10:	567d                	li	a2,-1
    1c12:	f6c69fe3          	bne	a3,a2,1b90 <Move_Piece_TTRIS+0x4e>
    1c16:	177d                	addi	a4,a4,-1
    1c18:	bf9d                	j	1b8e <Move_Piece_TTRIS+0x4c>
    1c1a:	00070023          	sb	zero,0(a4)
    1c1e:	bf6d                	j	1bd8 <Move_Piece_TTRIS+0x96>
    1c20:	4605                	li	a2,1
    1c22:	fcc697e3          	bne	a3,a2,1bf0 <Move_Piece_TTRIS+0xae>
    1c26:	0705                	addi	a4,a4,1
    1c28:	b7d9                	j	1bee <Move_Piece_TTRIS+0xac>

00001c2a <INIT_ALL_VAR_TTRIS>:
    1c2a:	4701                	li	a4,0
    1c2c:	81818613          	addi	a2,gp,-2024 # 20000080 <Grid_TTRIS>
    1c30:	45b1                	li	a1,12
    1c32:	450d                	li	a0,3
    1c34:	00e606b3          	add	a3,a2,a4
    1c38:	4781                	li	a5,0
    1c3a:	0785                	addi	a5,a5,1
    1c3c:	00068023          	sb	zero,0(a3)
    1c40:	0ff7f793          	andi	a5,a5,255
    1c44:	068d                	addi	a3,a3,3
    1c46:	feb79ae3          	bne	a5,a1,1c3a <INIT_ALL_VAR_TTRIS+0x10>
    1c4a:	0705                	addi	a4,a4,1
    1c4c:	fea714e3          	bne	a4,a0,1c34 <INIT_ALL_VAR_TTRIS+0xa>
    1c50:	85018793          	addi	a5,gp,-1968 # 200000b8 <Piece_Mat2_TTRIS>
    1c54:	00578713          	addi	a4,a5,5
    1c58:	00078023          	sb	zero,0(a5)
    1c5c:	000782a3          	sb	zero,5(a5)
    1c60:	00078523          	sb	zero,10(a5)
    1c64:	000787a3          	sb	zero,15(a5)
    1c68:	00078a23          	sb	zero,20(a5)
    1c6c:	0785                	addi	a5,a5,1
    1c6e:	fef715e3          	bne	a4,a5,1c58 <INIT_ALL_VAR_TTRIS+0x2e>
    1c72:	82018e23          	sb	zero,-1988(gp) # 200000a4 <LONG_PRESS_X_TTRIS>
    1c76:	800189a3          	sb	zero,-2029(gp) # 2000007b <DOWN_DESACTIVE_TTRIS>
    1c7a:	80018aa3          	sb	zero,-2027(gp) # 2000007d <DROP_SPEED_TTRIS>
    1c7e:	860185a3          	sb	zero,-1941(gp) # 200000d3 <SPEED_x_trig_TTRIS>
    1c82:	4705                	li	a4,1
    1c84:	80e18b23          	sb	a4,-2026(gp) # 2000007e <DROP_TRIG_TTRIS>
    1c88:	86018723          	sb	zero,-1938(gp) # 200000d6 <xx_TTRIS>
    1c8c:	860187a3          	sb	zero,-1937(gp) # 200000d7 <yy_TTRIS>
    1c90:	86018523          	sb	zero,-1942(gp) # 200000d2 <Ripple_filter_TTRIS>
    1c94:	840185a3          	sb	zero,-1973(gp) # 200000b3 <PIECEs_TTRIS>
    1c98:	84018623          	sb	zero,-1972(gp) # 200000b4 <PIECEs_TTRIS_PREVIEW>
    1c9c:	840186a3          	sb	zero,-1971(gp) # 200000b5 <PIECEs_rot_TTRIS>
    1ca0:	80018a23          	sb	zero,-2028(gp) # 2000007c <DROP_BREAK_TTRIS>
    1ca4:	84018423          	sb	zero,-1976(gp) # 200000b0 <OU_SUIS_JE_X_TTRIS>
    1ca8:	84018523          	sb	zero,-1974(gp) # 200000b2 <OU_SUIS_JE_Y_TTRIS>
    1cac:	840183a3          	sb	zero,-1977(gp) # 200000af <OU_SUIS_JE_X_ENGAGED_TTRIS>
    1cb0:	840184a3          	sb	zero,-1975(gp) # 200000b1 <OU_SUIS_JE_Y_ENGAGED_TTRIS>
    1cb4:	800188a3          	sb	zero,-2031(gp) # 20000079 <DEPLACEMENT_XX_TTRIS>
    1cb8:	80018923          	sb	zero,-2030(gp) # 2000007a <DEPLACEMENT_YY_TTRIS>
    1cbc:	8082                	ret

00001cbe <Reset_Value_TTRIS>:
    1cbe:	82018f23          	sb	zero,-1986(gp) # 200000a6 <Level_TTRIS>
    1cc2:	84019023          	sh	zero,-1984(gp) # 200000a8 <Nb_of_line_F_TTRIS>
    1cc6:	86019623          	sh	zero,-1940(gp) # 200000d4 <Scores_TTRIS>
    1cca:	8082                	ret

00001ccc <tetris_start>:
    1ccc:	bd4fe2ef          	jal	t0,a0 <__riscv_save_0>
    1cd0:	1161                	addi	sp,sp,-8
    1cd2:	37f5                	jal	1cbe <Reset_Value_TTRIS>
    1cd4:	000103a3          	sb	zero,7(sp)
    1cd8:	3f89                	jal	1c2a <INIT_ALL_VAR_TTRIS>
    1cda:	818ff0ef          	jal	ra,cf2 <Game_Play_TTRIS>
    1cde:	86f18413          	addi	s0,gp,-1937 # 200000d7 <yy_TTRIS>
    1ce2:	86e18713          	addi	a4,gp,-1938 # 200000d6 <xx_TTRIS>
    1ce6:	00070503          	lb	a0,0(a4)
    1cea:	00040583          	lb	a1,0(s0)
    1cee:	85cff0ef          	jal	ra,d4a <Ou_suis_Je_TTRIS>
    1cf2:	00710513          	addi	a0,sp,7
    1cf6:	9c2ff0ef          	jal	ra,eb8 <SETUP_NEW_PREVIEW_PIECE_TTRIS>
    1cfa:	08000513          	li	a0,128
    1cfe:	c8fff0ef          	jal	ra,198c <Tiny_Flip_TTRIS>
    1d02:	3e800513          	li	a0,1000
    1d06:	269000ef          	jal	ra,276e <Delay_Ms>
    1d0a:	86e18713          	addi	a4,gp,-1938 # 200000d6 <xx_TTRIS>
    1d0e:	03700693          	li	a3,55
    1d12:	a314                	sb	a3,0(a4)
    1d14:	86f18793          	addi	a5,gp,-1937 # 200000d7 <yy_TTRIS>
    1d18:	4715                	li	a4,5
    1d1a:	a018                	sb	a4,0(s0)
    1d1c:	c03e                	sw	a5,0(sp)
    1d1e:	4401                	li	s0,0
    1d20:	86e18493          	addi	s1,gp,-1938 # 200000d6 <xx_TTRIS>
    1d24:	00710513          	addi	a0,sp,7
    1d28:	b5eff0ef          	jal	ra,1086 <CONTROLE_TTRIS>
    1d2c:	8141c703          	lbu	a4,-2028(gp) # 2000007c <DROP_BREAK_TTRIS>
    1d30:	4799                	li	a5,6
    1d32:	04f71263          	bne	a4,a5,1d76 <tetris_start+0xaa>
    1d36:	d7fff0ef          	jal	ra,1ab4 <END_DROP_TTRIS>
    1d3a:	9deff0ef          	jal	ra,f18 <End_Play_TTRIS>
    1d3e:	e925                	bnez	a0,1dae <tetris_start+0xe2>
    1d40:	4702                	lw	a4,0(sp)
    1d42:	4789                	li	a5,2
    1d44:	00710513          	addi	a0,sp,7
    1d48:	a31c                	sb	a5,0(a4)
    1d4a:	03700793          	li	a5,55
    1d4e:	a09c                	sb	a5,0(s1)
    1d50:	84c1c703          	lbu	a4,-1972(gp) # 200000b4 <PIECEs_TTRIS_PREVIEW>
    1d54:	84e185a3          	sb	a4,-1973(gp) # 200000b3 <PIECEs_TTRIS>
    1d58:	960ff0ef          	jal	ra,eb8 <SETUP_NEW_PREVIEW_PIECE_TTRIS>
    1d5c:	4705                	li	a4,1
    1d5e:	08000513          	li	a0,128
    1d62:	80e189a3          	sb	a4,-2029(gp) # 2000007b <DOWN_DESACTIVE_TTRIS>
    1d66:	c27ff0ef          	jal	ra,198c <Tiny_Flip_TTRIS>
    1d6a:	f89fe0ef          	jal	ra,cf2 <Game_Play_TTRIS>
    1d6e:	08000513          	li	a0,128
    1d72:	c1bff0ef          	jal	ra,198c <Tiny_Flip_TTRIS>
    1d76:	d80fe0ef          	jal	ra,2f6 <joy_up_pressed>
    1d7a:	c919                	beqz	a0,1d90 <tetris_start+0xc4>
    1d7c:	86a18793          	addi	a5,gp,-1942 # 200000d2 <Ripple_filter_TTRIS>
    1d80:	2398                	lbu	a4,0(a5)
    1d82:	e719                	bnez	a4,1d90 <tetris_start+0xc4>
    1d84:	f55fe0ef          	jal	ra,cd8 <PSEUDO_RND_TTRIS>
    1d88:	4705                	li	a4,1
    1d8a:	86a18793          	addi	a5,gp,-1942 # 200000d2 <Ripple_filter_TTRIS>
    1d8e:	a398                	sb	a4,0(a5)
    1d90:	db3ff0ef          	jal	ra,1b42 <Move_Piece_TTRIS>
    1d94:	4799                	li	a5,6
    1d96:	00f41863          	bne	s0,a5,1da6 <tetris_start+0xda>
    1d9a:	05200513          	li	a0,82
    1d9e:	befff0ef          	jal	ra,198c <Tiny_Flip_TTRIS>
    1da2:	4401                	li	s0,0
    1da4:	b741                	j	1d24 <tetris_start+0x58>
    1da6:	0405                	addi	s0,s0,1
    1da8:	0ff47413          	andi	s0,s0,255
    1dac:	bfa5                	j	1d24 <tetris_start+0x58>
    1dae:	08000513          	li	a0,128
    1db2:	bdbff0ef          	jal	ra,198c <Tiny_Flip_TTRIS>
    1db6:	7d000513          	li	a0,2000
    1dba:	1b5000ef          	jal	ra,276e <Delay_Ms>
    1dbe:	4501                	li	a0,0
    1dc0:	0121                	addi	sp,sp,8
    1dc2:	ae8fe06f          	j	aa <__riscv_restore_0>

00001dc6 <ADC1_IRQHandler>:
    1dc6:	a001                	j	1dc6 <ADC1_IRQHandler>

00001dc8 <handle_reset>:
    1dc8:	1ffff197          	auipc	gp,0x1ffff
    1dcc:	aa018193          	addi	gp,gp,-1376 # 20000868 <__global_pointer$>
    1dd0:	f9818113          	addi	sp,gp,-104 # 20000800 <_eusrstack>
    1dd4:	00002517          	auipc	a0,0x2
    1dd8:	07050513          	addi	a0,a0,112 # 3e44 <_data_lma>
    1ddc:	1fffe597          	auipc	a1,0x1fffe
    1de0:	22458593          	addi	a1,a1,548 # 20000000 <_data_vma>
    1de4:	1fffe617          	auipc	a2,0x1fffe
    1de8:	28460613          	addi	a2,a2,644 # 20000068 <_edata>
    1dec:	00c5fa63          	bgeu	a1,a2,1e00 <handle_reset+0x38>
    1df0:	00052283          	lw	t0,0(a0)
    1df4:	0055a023          	sw	t0,0(a1)
    1df8:	0511                	addi	a0,a0,4
    1dfa:	0591                	addi	a1,a1,4
    1dfc:	fec5eae3          	bltu	a1,a2,1df0 <handle_reset+0x28>
    1e00:	1fffe517          	auipc	a0,0x1fffe
    1e04:	26850513          	addi	a0,a0,616 # 20000068 <_edata>
    1e08:	a7418593          	addi	a1,gp,-1420 # 200002dc <_ebss>
    1e0c:	00b57763          	bgeu	a0,a1,1e1a <handle_reset+0x52>
    1e10:	00052023          	sw	zero,0(a0)
    1e14:	0511                	addi	a0,a0,4
    1e16:	feb56de3          	bltu	a0,a1,1e10 <handle_reset+0x48>
    1e1a:	000022b7          	lui	t0,0x2
    1e1e:	88028293          	addi	t0,t0,-1920 # 1880 <Recupe_TTRIS+0x2>
    1e22:	30029073          	csrw	mstatus,t0
    1e26:	428d                	li	t0,3
    1e28:	80429073          	csrw	0x804,t0
    1e2c:	ffffe297          	auipc	t0,0xffffe
    1e30:	1d428293          	addi	t0,t0,468 # 0 <_sinit>
    1e34:	0032e293          	ori	t0,t0,3
    1e38:	30529073          	csrw	mtvec,t0
    1e3c:	d4bfe0ef          	jal	ra,b86 <SystemInit>
    1e40:	ffffe297          	auipc	t0,0xffffe
    1e44:	5de28293          	addi	t0,t0,1502 # 41e <main>
    1e48:	34129073          	csrw	mepc,t0
    1e4c:	30200073          	mret

00001e50 <ssd1306_cmd>:
    1e50:	a50fe2ef          	jal	t0,a0 <__riscv_save_0>
    1e54:	1171                	addi	sp,sp,-4
    1e56:	81c8                	sb	a0,3(sp)
    1e58:	4605                	li	a2,1
    1e5a:	4585                	li	a1,1
    1e5c:	00310513          	addi	a0,sp,3
    1e60:	2b41                	jal	23f0 <ssd1306_pkt_send>
    1e62:	4501                	li	a0,0
    1e64:	0111                	addi	sp,sp,4
    1e66:	a44fe06f          	j	aa <__riscv_restore_0>

00001e6a <ssd1306_data>:
    1e6a:	a36fe2ef          	jal	t0,a0 <__riscv_save_0>
    1e6e:	4601                	li	a2,0
    1e70:	2341                	jal	23f0 <ssd1306_pkt_send>
    1e72:	4501                	li	a0,0
    1e74:	a36fe06f          	j	aa <__riscv_restore_0>

00001e78 <ssd1306_setbuf>:
    1e78:	a28fe2ef          	jal	t0,a0 <__riscv_save_0>
    1e7c:	4581                	li	a1,0
    1e7e:	c119                	beqz	a0,1e84 <ssd1306_setbuf+0xc>
    1e80:	0ff00593          	li	a1,255
    1e84:	20000613          	li	a2,512
    1e88:	87018513          	addi	a0,gp,-1936 # 200000d8 <ssd1306_buffer>
    1e8c:	abefe0ef          	jal	ra,14a <memset>
    1e90:	a1afe06f          	j	aa <__riscv_restore_0>

00001e94 <ssd1306_refresh>:
    1e94:	a0cfe2ef          	jal	t0,a0 <__riscv_save_0>
    1e98:	fd410113          	addi	sp,sp,-44
    1e9c:	02100513          	li	a0,33
    1ea0:	3f45                	jal	1e50 <ssd1306_cmd>
    1ea2:	4501                	li	a0,0
    1ea4:	3775                	jal	1e50 <ssd1306_cmd>
    1ea6:	07f00513          	li	a0,127
    1eaa:	375d                	jal	1e50 <ssd1306_cmd>
    1eac:	02200513          	li	a0,34
    1eb0:	3745                	jal	1e50 <ssd1306_cmd>
    1eb2:	4501                	li	a0,0
    1eb4:	3f71                	jal	1e50 <ssd1306_cmd>
    1eb6:	451d                	li	a0,7
    1eb8:	3f61                	jal	1e50 <ssd1306_cmd>
    1eba:	6491                	lui	s1,0x4
    1ebc:	87018413          	addi	s0,gp,-1936 # 200000d8 <ssd1306_buffer>
    1ec0:	4601                	li	a2,0
    1ec2:	cc048493          	addi	s1,s1,-832 # 3cc0 <expand>
    1ec6:	8322                	mv	t1,s0
    1ec8:	4781                	li	a5,0
    1eca:	4701                	li	a4,0
    1ecc:	02000593          	li	a1,32
    1ed0:	0074                	addi	a3,sp,12
    1ed2:	00e68533          	add	a0,a3,a4
    1ed6:	00e306b3          	add	a3,t1,a4
    1eda:	2294                	lbu	a3,0(a3)
    1edc:	0705                	addi	a4,a4,1
    1ede:	8abd                	andi	a3,a3,15
    1ee0:	96a6                	add	a3,a3,s1
    1ee2:	2294                	lbu	a3,0(a3)
    1ee4:	a114                	sb	a3,0(a0)
    1ee6:	feb715e3          	bne	a4,a1,1ed0 <ssd1306_refresh+0x3c>
    1eea:	02000593          	li	a1,32
    1eee:	0068                	addi	a0,sp,12
    1ef0:	c41a                	sw	t1,8(sp)
    1ef2:	c23e                	sw	a5,4(sp)
    1ef4:	c032                	sw	a2,0(sp)
    1ef6:	3f95                	jal	1e6a <ssd1306_data>
    1ef8:	4792                	lw	a5,4(sp)
    1efa:	4322                	lw	t1,8(sp)
    1efc:	08000713          	li	a4,128
    1f00:	02078793          	addi	a5,a5,32
    1f04:	0ff7f793          	andi	a5,a5,255
    1f08:	02030313          	addi	t1,t1,32
    1f0c:	4602                	lw	a2,0(sp)
    1f0e:	fae79ee3          	bne	a5,a4,1eca <ssd1306_refresh+0x36>
    1f12:	8322                	mv	t1,s0
    1f14:	4781                	li	a5,0
    1f16:	02000293          	li	t0,32
    1f1a:	4701                	li	a4,0
    1f1c:	0074                	addi	a3,sp,12
    1f1e:	00e685b3          	add	a1,a3,a4
    1f22:	00e306b3          	add	a3,t1,a4
    1f26:	2294                	lbu	a3,0(a3)
    1f28:	0705                	addi	a4,a4,1
    1f2a:	8291                	srli	a3,a3,0x4
    1f2c:	96a6                	add	a3,a3,s1
    1f2e:	2294                	lbu	a3,0(a3)
    1f30:	a194                	sb	a3,0(a1)
    1f32:	fe5715e3          	bne	a4,t0,1f1c <ssd1306_refresh+0x88>
    1f36:	02000593          	li	a1,32
    1f3a:	0068                	addi	a0,sp,12
    1f3c:	c41a                	sw	t1,8(sp)
    1f3e:	c23e                	sw	a5,4(sp)
    1f40:	c032                	sw	a2,0(sp)
    1f42:	f29ff0ef          	jal	ra,1e6a <ssd1306_data>
    1f46:	4792                	lw	a5,4(sp)
    1f48:	4322                	lw	t1,8(sp)
    1f4a:	08000713          	li	a4,128
    1f4e:	02078793          	addi	a5,a5,32
    1f52:	0ff7f793          	andi	a5,a5,255
    1f56:	02030313          	addi	t1,t1,32
    1f5a:	4602                	lw	a2,0(sp)
    1f5c:	02000293          	li	t0,32
    1f60:	fae79de3          	bne	a5,a4,1f1a <ssd1306_refresh+0x86>
    1f64:	08060613          	addi	a2,a2,128
    1f68:	20000793          	li	a5,512
    1f6c:	08040413          	addi	s0,s0,128
    1f70:	f4f61be3          	bne	a2,a5,1ec6 <ssd1306_refresh+0x32>
    1f74:	02c10113          	addi	sp,sp,44
    1f78:	932fe06f          	j	aa <__riscv_restore_0>

00001f7c <ssd1306_clear>:
    1f7c:	924fe2ef          	jal	t0,a0 <__riscv_save_0>
    1f80:	4501                	li	a0,0
    1f82:	ef7ff0ef          	jal	ra,1e78 <ssd1306_setbuf>
    1f86:	f0fff0ef          	jal	ra,1e94 <ssd1306_refresh>
    1f8a:	920fe06f          	j	aa <__riscv_restore_0>

00001f8e <ssd1306_drawPixel>:
    1f8e:	01851793          	slli	a5,a0,0x18
    1f92:	87e1                	srai	a5,a5,0x18
    1f94:	0207c863          	bltz	a5,1fc4 <ssd1306_drawPixel+0x36>
    1f98:	47fd                	li	a5,31
    1f9a:	02b7e563          	bltu	a5,a1,1fc4 <ssd1306_drawPixel+0x36>
    1f9e:	0035d793          	srli	a5,a1,0x3
    1fa2:	079e                	slli	a5,a5,0x7
    1fa4:	97aa                	add	a5,a5,a0
    1fa6:	0075f713          	andi	a4,a1,7
    1faa:	4585                	li	a1,1
    1fac:	87018513          	addi	a0,gp,-1936 # 200000d8 <ssd1306_buffer>
    1fb0:	00e595b3          	sll	a1,a1,a4
    1fb4:	953e                	add	a0,a0,a5
    1fb6:	05e2                	slli	a1,a1,0x18
    1fb8:	00050783          	lb	a5,0(a0)
    1fbc:	85e1                	srai	a1,a1,0x18
    1fbe:	c601                	beqz	a2,1fc6 <ssd1306_drawPixel+0x38>
    1fc0:	8ddd                	or	a1,a1,a5
    1fc2:	a10c                	sb	a1,0(a0)
    1fc4:	8082                	ret
    1fc6:	fff5c593          	not	a1,a1
    1fca:	8dfd                	and	a1,a1,a5
    1fcc:	bfdd                	j	1fc2 <ssd1306_drawPixel+0x34>

00001fce <ssd1306_drawImage>:
    1fce:	fcc10113          	addi	sp,sp,-52
    1fd2:	c63e                	sw	a5,12(sp)
    1fd4:	9732                	add	a4,a4,a2
    1fd6:	0036d793          	srli	a5,a3,0x3
    1fda:	c23e                	sw	a5,4(sp)
    1fdc:	0ff77793          	andi	a5,a4,255
    1fe0:	d23e                	sw	a5,36(sp)
    1fe2:	4792                	lw	a5,4(sp)
    1fe4:	d822                	sw	s0,48(sp)
    1fe6:	d626                	sw	s1,44(sp)
    1fe8:	078e                	slli	a5,a5,0x3
    1fea:	97ae                	add	a5,a5,a1
    1fec:	0ff7f793          	andi	a5,a5,255
    1ff0:	d03e                	sw	a5,32(sp)
    1ff2:	47b2                	lw	a5,12(sp)
    1ff4:	c42e                	sw	a1,8(sp)
    1ff6:	00279713          	slli	a4,a5,0x2
    1ffa:	6791                	lui	a5,0x4
    1ffc:	ca878793          	addi	a5,a5,-856 # 3ca8 <tinyblock_TTTRIS+0x8>
    2000:	97ba                	add	a5,a5,a4
    2002:	d43e                	sw	a5,40(sp)
    2004:	5792                	lw	a5,36(sp)
    2006:	00f61763          	bne	a2,a5,2014 <ssd1306_drawImage+0x46>
    200a:	5442                	lw	s0,48(sp)
    200c:	54b2                	lw	s1,44(sp)
    200e:	03410113          	addi	sp,sp,52
    2012:	8082                	ret
    2014:	47fd                	li	a5,31
    2016:	fec7eae3          	bltu	a5,a2,200a <ssd1306_drawImage+0x3c>
    201a:	00767793          	andi	a5,a2,7
    201e:	4585                	li	a1,1
    2020:	00f595b3          	sll	a1,a1,a5
    2024:	00365793          	srli	a5,a2,0x3
    2028:	079e                	slli	a5,a5,0x7
    202a:	cc3e                	sw	a5,24(sp)
    202c:	fff5c793          	not	a5,a1
    2030:	07e2                	slli	a5,a5,0x18
    2032:	5282                	lw	t0,32(sp)
    2034:	87e1                	srai	a5,a5,0x18
    2036:	c02a                	sw	a0,0(sp)
    2038:	c83e                	sw	a5,16(sp)
    203a:	47a2                	lw	a5,8(sp)
    203c:	00579863          	bne	a5,t0,204c <ssd1306_drawImage+0x7e>
    2040:	4792                	lw	a5,4(sp)
    2042:	0605                	addi	a2,a2,1
    2044:	0ff67613          	andi	a2,a2,255
    2048:	953e                	add	a0,a0,a5
    204a:	bf6d                	j	2004 <ssd1306_drawImage+0x36>
    204c:	4782                	lw	a5,0(sp)
    204e:	4381                	li	t2,0
    2050:	239c                	lbu	a5,0(a5)
    2052:	ce3e                	sw	a5,28(sp)
    2054:	ff828793          	addi	a5,t0,-8
    2058:	0ff7f793          	andi	a5,a5,255
    205c:	ca3e                	sw	a5,20(sp)
    205e:	47d2                	lw	a5,20(sp)
    2060:	979e                	add	a5,a5,t2
    2062:	0ff7f793          	andi	a5,a5,255
    2066:	01879713          	slli	a4,a5,0x18
    206a:	8761                	srai	a4,a4,0x18
    206c:	06074a63          	bltz	a4,20e0 <ssd1306_drawImage+0x112>
    2070:	4762                	lw	a4,24(sp)
    2072:	4685                	li	a3,1
    2074:	4432                	lw	s0,12(sp)
    2076:	97ba                	add	a5,a5,a4
    2078:	4772                	lw	a4,28(sp)
    207a:	007696b3          	sll	a3,a3,t2
    207e:	8ef9                	and	a3,a3,a4
    2080:	4715                	li	a4,5
    2082:	04876b63          	bltu	a4,s0,20d8 <ssd1306_drawImage+0x10a>
    2086:	5722                	lw	a4,40(sp)
    2088:	00072303          	lw	t1,0(a4)
    208c:	87018713          	addi	a4,gp,-1936 # 200000d8 <ssd1306_buffer>
    2090:	8302                	jr	t1
    2092:	00f704b3          	add	s1,a4,a5
    2096:	01859413          	slli	s0,a1,0x18
    209a:	2084                	lbu	s1,0(s1)
    209c:	8461                	srai	s0,s0,0x18
    209e:	fff44313          	not	t1,s0
    20a2:	00937333          	and	t1,t1,s1
    20a6:	0362                	slli	t1,t1,0x18
    20a8:	41835313          	srai	t1,t1,0x18
    20ac:	e28d                	bnez	a3,20ce <ssd1306_drawImage+0x100>
    20ae:	4401                	li	s0,0
    20b0:	a839                	j	20ce <ssd1306_drawImage+0x100>
    20b2:	00f704b3          	add	s1,a4,a5
    20b6:	01859413          	slli	s0,a1,0x18
    20ba:	2084                	lbu	s1,0(s1)
    20bc:	8461                	srai	s0,s0,0x18
    20be:	fff44313          	not	t1,s0
    20c2:	00937333          	and	t1,t1,s1
    20c6:	0362                	slli	t1,t1,0x18
    20c8:	41835313          	srai	t1,t1,0x18
    20cc:	f2ed                	bnez	a3,20ae <ssd1306_drawImage+0xe0>
    20ce:	97ba                	add	a5,a5,a4
    20d0:	00836333          	or	t1,t1,s0
    20d4:	00678023          	sb	t1,0(a5)
    20d8:	0385                	addi	t2,t2,1
    20da:	47a1                	li	a5,8
    20dc:	f8f391e3          	bne	t2,a5,205e <ssd1306_drawImage+0x90>
    20e0:	4782                	lw	a5,0(sp)
    20e2:	12e1                	addi	t0,t0,-8
    20e4:	0ff2f293          	andi	t0,t0,255
    20e8:	0785                	addi	a5,a5,1
    20ea:	c03e                	sw	a5,0(sp)
    20ec:	b7b9                	j	203a <ssd1306_drawImage+0x6c>
    20ee:	00f70333          	add	t1,a4,a5
    20f2:	00030303          	lb	t1,0(t1)
    20f6:	547d                	li	s0,-1
    20f8:	ea85                	bnez	a3,2128 <ssd1306_drawImage+0x15a>
    20fa:	4442                	lw	s0,16(sp)
    20fc:	a035                	j	2128 <ssd1306_drawImage+0x15a>
    20fe:	00f70333          	add	t1,a4,a5
    2102:	00030303          	lb	t1,0(t1)
    2106:	4401                	li	s0,0
    2108:	d2f9                	beqz	a3,20ce <ssd1306_drawImage+0x100>
    210a:	842e                	mv	s0,a1
    210c:	b7c9                	j	20ce <ssd1306_drawImage+0x100>
    210e:	00f70333          	add	t1,a4,a5
    2112:	00030303          	lb	t1,0(t1)
    2116:	4401                	li	s0,0
    2118:	fadd                	bnez	a3,20ce <ssd1306_drawImage+0x100>
    211a:	bfc5                	j	210a <ssd1306_drawImage+0x13c>
    211c:	00f70333          	add	t1,a4,a5
    2120:	00030303          	lb	t1,0(t1)
    2124:	547d                	li	s0,-1
    2126:	faf1                	bnez	a3,20fa <ssd1306_drawImage+0x12c>
    2128:	97ba                	add	a5,a5,a4
    212a:	00837333          	and	t1,t1,s0
    212e:	b75d                	j	20d4 <ssd1306_drawImage+0x106>

00002130 <ssd1306_drawchar>:
    2130:	f71fd2ef          	jal	t0,a0 <__riscv_save_0>
    2134:	f9f50513          	addi	a0,a0,-97
    2138:	6491                	lui	s1,0x4
    213a:	050e                	slli	a0,a0,0x3
    213c:	cd048493          	addi	s1,s1,-816 # 3cd0 <fontdata>
    2140:	00860313          	addi	t1,a2,8
    2144:	01069393          	slli	t2,a3,0x10
    2148:	1121                	addi	sp,sp,-24
    214a:	82ae                	mv	t0,a1
    214c:	8432                	mv	s0,a2
    214e:	94aa                	add	s1,s1,a0
    2150:	0ff37313          	andi	t1,t1,255
    2154:	0103d393          	srli	t2,t2,0x10
    2158:	2098                	lbu	a4,0(s1)
    215a:	4781                	li	a5,0
    215c:	01871613          	slli	a2,a4,0x18
    2160:	8661                	srai	a2,a2,0x18
    2162:	04065863          	bgez	a2,21b2 <ssd1306_drawchar+0x82>
    2166:	861e                	mv	a2,t2
    2168:	00f28533          	add	a0,t0,a5
    216c:	85a2                	mv	a1,s0
    216e:	0ff57513          	andi	a0,a0,255
    2172:	ca1e                	sw	t2,20(sp)
    2174:	c836                	sw	a3,16(sp)
    2176:	c61a                	sw	t1,12(sp)
    2178:	c43a                	sw	a4,8(sp)
    217a:	c23e                	sw	a5,4(sp)
    217c:	c016                	sw	t0,0(sp)
    217e:	e11ff0ef          	jal	ra,1f8e <ssd1306_drawPixel>
    2182:	4792                	lw	a5,4(sp)
    2184:	4722                	lw	a4,8(sp)
    2186:	4621                	li	a2,8
    2188:	0785                	addi	a5,a5,1
    218a:	07c2                	slli	a5,a5,0x10
    218c:	0706                	slli	a4,a4,0x1
    218e:	83c1                	srli	a5,a5,0x10
    2190:	0ff77713          	andi	a4,a4,255
    2194:	4282                	lw	t0,0(sp)
    2196:	4332                	lw	t1,12(sp)
    2198:	46c2                	lw	a3,16(sp)
    219a:	43d2                	lw	t2,20(sp)
    219c:	fcc790e3          	bne	a5,a2,215c <ssd1306_drawchar+0x2c>
    21a0:	0405                	addi	s0,s0,1
    21a2:	0ff47413          	andi	s0,s0,255
    21a6:	0485                	addi	s1,s1,1
    21a8:	fa8318e3          	bne	t1,s0,2158 <ssd1306_drawchar+0x28>
    21ac:	0161                	addi	sp,sp,24
    21ae:	efdfd06f          	j	aa <__riscv_restore_0>
    21b2:	fff6c613          	not	a2,a3
    21b6:	8a05                	andi	a2,a2,1
    21b8:	bf45                	j	2168 <ssd1306_drawchar+0x38>

000021ba <ssd1306_drawstr>:
    21ba:	ee7fd2ef          	jal	t0,a0 <__riscv_save_0>
    21be:	1161                	addi	sp,sp,-8
    21c0:	84aa                	mv	s1,a0
    21c2:	842e                	mv	s0,a1
    21c4:	87b2                	mv	a5,a2
    21c6:	8736                	mv	a4,a3
    21c8:	0485                	addi	s1,s1,1
    21ca:	fff4c503          	lbu	a0,-1(s1)
    21ce:	c10d                	beqz	a0,21f0 <ssd1306_drawstr+0x36>
    21d0:	86ba                	mv	a3,a4
    21d2:	863e                	mv	a2,a5
    21d4:	85a2                	mv	a1,s0
    21d6:	c23a                	sw	a4,4(sp)
    21d8:	c03e                	sw	a5,0(sp)
    21da:	0421                	addi	s0,s0,8
    21dc:	f55ff0ef          	jal	ra,2130 <ssd1306_drawchar>
    21e0:	0ff47413          	andi	s0,s0,255
    21e4:	07800693          	li	a3,120
    21e8:	4782                	lw	a5,0(sp)
    21ea:	4712                	lw	a4,4(sp)
    21ec:	fc86fee3          	bgeu	a3,s0,21c8 <ssd1306_drawstr+0xe>
    21f0:	0121                	addi	sp,sp,8
    21f2:	eb9fd06f          	j	aa <__riscv_restore_0>

000021f6 <ssd1306_i2c_setup>:
    21f6:	eabfd2ef          	jal	t0,a0 <__riscv_save_0>
    21fa:	400217b7          	lui	a5,0x40021
    21fe:	4b98                	lw	a4,16(a5)
    2200:	002006b7          	lui	a3,0x200
    2204:	000f45b7          	lui	a1,0xf4
    2208:	8f55                	or	a4,a4,a3
    220a:	cb98                	sw	a4,16(a5)
    220c:	4b98                	lw	a4,16(a5)
    220e:	ffe006b7          	lui	a3,0xffe00
    2212:	16fd                	addi	a3,a3,-1
    2214:	8f75                	and	a4,a4,a3
    2216:	cb98                	sw	a4,16(a5)
    2218:	200007b7          	lui	a5,0x20000
    221c:	02c7a503          	lw	a0,44(a5) # 2000002c <SystemCoreClock>
    2220:	1171                	addi	sp,sp,-4
    2222:	24058593          	addi	a1,a1,576 # f4240 <_data_lma+0xf03fc>
    2226:	eaffd0ef          	jal	ra,d4 <__udivsi3>
    222a:	85aa                	mv	a1,a0
    222c:	00004537          	lui	a0,0x4
    2230:	400054b7          	lui	s1,0x40005
    2234:	dd850513          	addi	a0,a0,-552 # 3dd8 <fontdata+0x108>
    2238:	3d7000ef          	jal	ra,2e0e <printf>
    223c:	4044d403          	lhu	s0,1028(s1) # 40005404 <__global_pointer$+0x20004b9c>
    2240:	200007b7          	lui	a5,0x20000
    2244:	02c7a783          	lw	a5,44(a5) # 2000002c <SystemCoreClock>
    2248:	0442                	slli	s0,s0,0x10
    224a:	8041                	srli	s0,s0,0x10
    224c:	001e85b7          	lui	a1,0x1e8
    2250:	48058593          	addi	a1,a1,1152 # 1e8480 <_data_lma+0x1e463c>
    2254:	853e                	mv	a0,a5
    2256:	fc047413          	andi	s0,s0,-64
    225a:	c03e                	sw	a5,0(sp)
    225c:	0442                	slli	s0,s0,0x10
    225e:	e77fd0ef          	jal	ra,d4 <__udivsi3>
    2262:	03f57513          	andi	a0,a0,63
    2266:	8041                	srli	s0,s0,0x10
    2268:	8c49                	or	s0,s0,a0
    226a:	400057b7          	lui	a5,0x40005
    226e:	40879223          	sh	s0,1028(a5) # 40005404 <__global_pointer$+0x20004b9c>
    2272:	4782                	lw	a5,0(sp)
    2274:	017d85b7          	lui	a1,0x17d8
    2278:	84058593          	addi	a1,a1,-1984 # 17d7840 <_data_lma+0x17d39fc>
    227c:	853e                	mv	a0,a5
    227e:	e57fd0ef          	jal	ra,d4 <__udivsi3>
    2282:	77f1                	lui	a5,0xffffc
    2284:	8d5d                	or	a0,a0,a5
    2286:	0542                	slli	a0,a0,0x10
    2288:	8141                	srli	a0,a0,0x10
    228a:	400057b7          	lui	a5,0x40005
    228e:	40a79e23          	sh	a0,1052(a5) # 4000541c <__global_pointer$+0x20004bb4>
    2292:	4004d783          	lhu	a5,1024(s1)
    2296:	0017e793          	ori	a5,a5,1
    229a:	40f49023          	sh	a5,1024(s1)
    229e:	4004d783          	lhu	a5,1024(s1)
    22a2:	4007e793          	ori	a5,a5,1024
    22a6:	40f49023          	sh	a5,1024(s1)
    22aa:	0111                	addi	sp,sp,4
    22ac:	dfffd06f          	j	aa <__riscv_restore_0>

000022b0 <ssd1306_i2c_error>:
    22b0:	df1fd2ef          	jal	t0,a0 <__riscv_save_0>
    22b4:	200007b7          	lui	a5,0x20000
    22b8:	050a                	slli	a0,a0,0x2
    22ba:	03078793          	addi	a5,a5,48 # 20000030 <errstr>
    22be:	97aa                	add	a5,a5,a0
    22c0:	438c                	lw	a1,0(a5)
    22c2:	00004537          	lui	a0,0x4
    22c6:	da050513          	addi	a0,a0,-608 # 3da0 <fontdata+0xd0>
    22ca:	345000ef          	jal	ra,2e0e <printf>
    22ce:	f29ff0ef          	jal	ra,21f6 <ssd1306_i2c_setup>
    22d2:	4505                	li	a0,1
    22d4:	dd7fd06f          	j	aa <__riscv_restore_0>

000022d8 <ssd1306_i2c_chk_evt>:
    22d8:	40005737          	lui	a4,0x40005
    22dc:	41475683          	lhu	a3,1044(a4) # 40005414 <__global_pointer$+0x20004bac>
    22e0:	41875783          	lhu	a5,1048(a4)
    22e4:	07c2                	slli	a5,a5,0x10
    22e6:	8fd5                	or	a5,a5,a3
    22e8:	8fe9                	and	a5,a5,a0
    22ea:	40a78533          	sub	a0,a5,a0
    22ee:	00153513          	seqz	a0,a0
    22f2:	8082                	ret

000022f4 <ssd1306_i2c_send>:
    22f4:	dadfd2ef          	jal	t0,a0 <__riscv_save_0>
    22f8:	67e1                	lui	a5,0x18
    22fa:	872a                	mv	a4,a0
    22fc:	1161                	addi	sp,sp,-8
    22fe:	84b2                	mv	s1,a2
    2300:	6a178793          	addi	a5,a5,1697 # 186a1 <_data_lma+0x1485d>
    2304:	40005537          	lui	a0,0x40005
    2308:	40050693          	addi	a3,a0,1024 # 40005400 <__global_pointer$+0x20004b98>
    230c:	2e92                	lhu	a2,24(a3)
    230e:	8a09                	andi	a2,a2,2
    2310:	c65d                	beqz	a2,23be <ssd1306_i2c_send+0xca>
    2312:	17fd                	addi	a5,a5,-1
    2314:	fbf5                	bnez	a5,2308 <ssd1306_i2c_send+0x14>
    2316:	4501                	li	a0,0
    2318:	a839                	j	2336 <ssd1306_i2c_send+0x42>
    231a:	147d                	addi	s0,s0,-1
    231c:	ec29                	bnez	s0,2376 <ssd1306_i2c_send+0x82>
    231e:	4509                	li	a0,2
    2320:	a819                	j	2336 <ssd1306_i2c_send+0x42>
    2322:	87a2                	mv	a5,s0
    2324:	40060693          	addi	a3,a2,1024
    2328:	2ada                	lhu	a4,20(a3)
    232a:	08077713          	andi	a4,a4,128
    232e:	e719                	bnez	a4,233c <ssd1306_i2c_send+0x48>
    2330:	17fd                	addi	a5,a5,-1
    2332:	fbed                	bnez	a5,2324 <ssd1306_i2c_send+0x30>
    2334:	450d                	li	a0,3
    2336:	f7bff0ef          	jal	ra,22b0 <ssd1306_i2c_error>
    233a:	a839                	j	2358 <ssd1306_i2c_send+0x64>
    233c:	0585                	addi	a1,a1,1
    233e:	fff5c783          	lbu	a5,-1(a1)
    2342:	aa9e                	sh	a5,16(a3)
    2344:	a889                	j	2396 <ssd1306_i2c_send+0xa2>
    2346:	40005737          	lui	a4,0x40005
    234a:	40075783          	lhu	a5,1024(a4) # 40005400 <__global_pointer$+0x20004b98>
    234e:	4501                	li	a0,0
    2350:	2007e793          	ori	a5,a5,512
    2354:	40f71023          	sh	a5,1024(a4)
    2358:	0121                	addi	sp,sp,8
    235a:	d51fd06f          	j	aa <__riscv_restore_0>
    235e:	400057b7          	lui	a5,0x40005
    2362:	0706                	slli	a4,a4,0x1
    2364:	40e79823          	sh	a4,1040(a5) # 40005410 <__global_pointer$+0x20004ba8>
    2368:	6461                	lui	s0,0x18
    236a:	000707b7          	lui	a5,0x70
    236e:	6a140413          	addi	s0,s0,1697 # 186a1 <_data_lma+0x1485d>
    2372:	08278793          	addi	a5,a5,130 # 70082 <_data_lma+0x6c23e>
    2376:	853e                	mv	a0,a5
    2378:	c02e                	sw	a1,0(sp)
    237a:	f5fff0ef          	jal	ra,22d8 <ssd1306_i2c_chk_evt>
    237e:	000707b7          	lui	a5,0x70
    2382:	08278793          	addi	a5,a5,130 # 70082 <_data_lma+0x6c23e>
    2386:	4582                	lw	a1,0(sp)
    2388:	d949                	beqz	a0,231a <ssd1306_i2c_send+0x26>
    238a:	6461                	lui	s0,0x18
    238c:	94ae                	add	s1,s1,a1
    238e:	6a140413          	addi	s0,s0,1697 # 186a1 <_data_lma+0x1485d>
    2392:	40005637          	lui	a2,0x40005
    2396:	f8b496e3          	bne	s1,a1,2322 <ssd1306_i2c_send+0x2e>
    239a:	000704b7          	lui	s1,0x70
    239e:	08448493          	addi	s1,s1,132 # 70084 <_data_lma+0x6c240>
    23a2:	8526                	mv	a0,s1
    23a4:	f35ff0ef          	jal	ra,22d8 <ssd1306_i2c_chk_evt>
    23a8:	fd59                	bnez	a0,2346 <ssd1306_i2c_send+0x52>
    23aa:	147d                	addi	s0,s0,-1
    23ac:	f87d                	bnez	s0,23a2 <ssd1306_i2c_send+0xae>
    23ae:	00004537          	lui	a0,0x4
    23b2:	dd050513          	addi	a0,a0,-560 # 3dd0 <fontdata+0x100>
    23b6:	27d000ef          	jal	ra,2e32 <puts>
    23ba:	4511                	li	a0,4
    23bc:	bfad                	j	2336 <ssd1306_i2c_send+0x42>
    23be:	229e                	lhu	a5,0(a3)
    23c0:	6461                	lui	s0,0x18
    23c2:	6a140413          	addi	s0,s0,1697 # 186a1 <_data_lma+0x1485d>
    23c6:	1007e793          	ori	a5,a5,256
    23ca:	a29e                	sh	a5,0(a3)
    23cc:	000307b7          	lui	a5,0x30
    23d0:	0785                	addi	a5,a5,1
    23d2:	853e                	mv	a0,a5
    23d4:	c22e                	sw	a1,4(sp)
    23d6:	c03a                	sw	a4,0(sp)
    23d8:	f01ff0ef          	jal	ra,22d8 <ssd1306_i2c_chk_evt>
    23dc:	4702                	lw	a4,0(sp)
    23de:	4592                	lw	a1,4(sp)
    23e0:	fd3d                	bnez	a0,235e <ssd1306_i2c_send+0x6a>
    23e2:	000307b7          	lui	a5,0x30
    23e6:	147d                	addi	s0,s0,-1
    23e8:	0785                	addi	a5,a5,1
    23ea:	f465                	bnez	s0,23d2 <ssd1306_i2c_send+0xde>
    23ec:	4505                	li	a0,1
    23ee:	b7a1                	j	2336 <ssd1306_i2c_send+0x42>

000023f0 <ssd1306_pkt_send>:
    23f0:	cb1fd2ef          	jal	t0,a0 <__riscv_save_0>
    23f4:	fdc10113          	addi	sp,sp,-36
    23f8:	842e                	mv	s0,a1
    23fa:	c215                	beqz	a2,241e <ssd1306_pkt_send+0x2e>
    23fc:	211c                	lbu	a5,0(a0)
    23fe:	00010023          	sb	zero,0(sp)
    2402:	80dc                	sb	a5,1(sp)
    2404:	00140613          	addi	a2,s0,1
    2408:	858a                	mv	a1,sp
    240a:	0ff67613          	andi	a2,a2,255
    240e:	03c00513          	li	a0,60
    2412:	ee3ff0ef          	jal	ra,22f4 <ssd1306_i2c_send>
    2416:	02410113          	addi	sp,sp,36
    241a:	c91fd06f          	j	aa <__riscv_restore_0>
    241e:	04000793          	li	a5,64
    2422:	862e                	mv	a2,a1
    2424:	85aa                	mv	a1,a0
    2426:	00110513          	addi	a0,sp,1
    242a:	805c                	sb	a5,0(sp)
    242c:	251000ef          	jal	ra,2e7c <memcpy>
    2430:	bfd1                	j	2404 <ssd1306_pkt_send+0x14>

00002432 <GPIO_Init>:
    2432:	4594                	lw	a3,8(a1)
    2434:	0106f793          	andi	a5,a3,16
    2438:	00f6f293          	andi	t0,a3,15
    243c:	c781                	beqz	a5,2444 <GPIO_Init+0x12>
    243e:	41dc                	lw	a5,4(a1)
    2440:	00f2e2b3          	or	t0,t0,a5
    2444:	0005d383          	lhu	t2,0(a1)
    2448:	0ff3f793          	andi	a5,t2,255
    244c:	c3a5                	beqz	a5,24ac <GPIO_Init+0x7a>
    244e:	00052303          	lw	t1,0(a0)
    2452:	1161                	addi	sp,sp,-8
    2454:	c222                	sw	s0,4(sp)
    2456:	c026                	sw	s1,0(sp)
    2458:	4781                	li	a5,0
    245a:	02800413          	li	s0,40
    245e:	04800493          	li	s1,72
    2462:	4705                	li	a4,1
    2464:	00f71633          	sll	a2,a4,a5
    2468:	00c3f733          	and	a4,t2,a2
    246c:	02e61263          	bne	a2,a4,2490 <GPIO_Init+0x5e>
    2470:	00279593          	slli	a1,a5,0x2
    2474:	473d                	li	a4,15
    2476:	00b71733          	sll	a4,a4,a1
    247a:	fff74713          	not	a4,a4
    247e:	00677333          	and	t1,a4,t1
    2482:	00b295b3          	sll	a1,t0,a1
    2486:	0065e333          	or	t1,a1,t1
    248a:	00869d63          	bne	a3,s0,24a4 <GPIO_Init+0x72>
    248e:	c950                	sw	a2,20(a0)
    2490:	0785                	addi	a5,a5,1
    2492:	4721                	li	a4,8
    2494:	fce797e3          	bne	a5,a4,2462 <GPIO_Init+0x30>
    2498:	4412                	lw	s0,4(sp)
    249a:	00652023          	sw	t1,0(a0)
    249e:	4482                	lw	s1,0(sp)
    24a0:	0121                	addi	sp,sp,8
    24a2:	8082                	ret
    24a4:	fe9696e3          	bne	a3,s1,2490 <GPIO_Init+0x5e>
    24a8:	c910                	sw	a2,16(a0)
    24aa:	b7dd                	j	2490 <GPIO_Init+0x5e>
    24ac:	8082                	ret

000024ae <GPIO_PinRemapConfig>:
    24ae:	40010337          	lui	t1,0x40010
    24b2:	00432703          	lw	a4,4(t1) # 40010004 <__global_pointer$+0x2000f79c>
    24b6:	00351793          	slli	a5,a0,0x3
    24ba:	0207d063          	bgez	a5,24da <GPIO_PinRemapConfig+0x2c>
    24be:	ffc007b7          	lui	a5,0xffc00
    24c2:	17f5                	addi	a5,a5,-3
    24c4:	8ff9                	and	a5,a5,a4
    24c6:	07000737          	lui	a4,0x7000
    24ca:	8fd9                	or	a5,a5,a4
    24cc:	cdd9                	beqz	a1,256a <GPIO_PinRemapConfig+0xbc>
    24ce:	f0000737          	lui	a4,0xf0000
    24d2:	177d                	addi	a4,a4,-1
    24d4:	8d79                	and	a0,a0,a4
    24d6:	8fc9                	or	a5,a5,a0
    24d8:	a849                	j	256a <GPIO_PinRemapConfig+0xbc>
    24da:	00055d63          	bgez	a0,24f4 <GPIO_PinRemapConfig+0x46>
    24de:	ffe007b7          	lui	a5,0xffe00
    24e2:	17ed                	addi	a5,a5,-5
    24e4:	8ff9                	and	a5,a5,a4
    24e6:	07000737          	lui	a4,0x7000
    24ea:	8fd9                	or	a5,a5,a4
    24ec:	cdbd                	beqz	a1,256a <GPIO_PinRemapConfig+0xbc>
    24ee:	0506                	slli	a0,a0,0x1
    24f0:	8105                	srli	a0,a0,0x1
    24f2:	b7d5                	j	24d6 <GPIO_PinRemapConfig+0x28>
    24f4:	003007b7          	lui	a5,0x300
    24f8:	01051693          	slli	a3,a0,0x10
    24fc:	00f57633          	and	a2,a0,a5
    2500:	82c1                	srli	a3,a3,0x10
    2502:	02f61363          	bne	a2,a5,2528 <GPIO_PinRemapConfig+0x7a>
    2506:	f9000637          	lui	a2,0xf9000
    250a:	167d                	addi	a2,a2,-1
    250c:	00c777b3          	and	a5,a4,a2
    2510:	00432703          	lw	a4,4(t1)
    2514:	8e79                	and	a2,a2,a4
    2516:	00c32223          	sw	a2,4(t1)
    251a:	c9a1                	beqz	a1,256a <GPIO_PinRemapConfig+0xbc>
    251c:	8155                	srli	a0,a0,0x15
    251e:	00451713          	slli	a4,a0,0x4
    2522:	00e69533          	sll	a0,a3,a4
    2526:	bf45                	j	24d6 <GPIO_PinRemapConfig+0x28>
    2528:	00b51793          	slli	a5,a0,0xb
    252c:	0207d463          	bgez	a5,2554 <GPIO_PinRemapConfig+0xa6>
    2530:	01055793          	srli	a5,a0,0x10
    2534:	00f7f613          	andi	a2,a5,15
    2538:	478d                	li	a5,3
    253a:	00c797b3          	sll	a5,a5,a2
    253e:	fff7c793          	not	a5,a5
    2542:	8ff9                	and	a5,a5,a4
    2544:	07000737          	lui	a4,0x7000
    2548:	8fd9                	or	a5,a5,a4
    254a:	c185                	beqz	a1,256a <GPIO_PinRemapConfig+0xbc>
    254c:	01555713          	srli	a4,a0,0x15
    2550:	0712                	slli	a4,a4,0x4
    2552:	bfc1                	j	2522 <GPIO_PinRemapConfig+0x74>
    2554:	8155                	srli	a0,a0,0x15
    2556:	0512                	slli	a0,a0,0x4
    2558:	00a69533          	sll	a0,a3,a0
    255c:	fff54793          	not	a5,a0
    2560:	8ff9                	and	a5,a5,a4
    2562:	07000737          	lui	a4,0x7000
    2566:	8fd9                	or	a5,a5,a4
    2568:	f5bd                	bnez	a1,24d6 <GPIO_PinRemapConfig+0x28>
    256a:	40010737          	lui	a4,0x40010
    256e:	c35c                	sw	a5,4(a4)
    2570:	8082                	ret

00002572 <RCC_AdjustHSICalibrationValue>:
    2572:	40021737          	lui	a4,0x40021
    2576:	431c                	lw	a5,0(a4)
    2578:	050e                	slli	a0,a0,0x3
    257a:	f077f793          	andi	a5,a5,-249
    257e:	8d5d                	or	a0,a0,a5
    2580:	c308                	sw	a0,0(a4)
    2582:	8082                	ret

00002584 <RCC_GetClocksFreq>:
    2584:	b1dfd2ef          	jal	t0,a0 <__riscv_save_0>
    2588:	40021737          	lui	a4,0x40021
    258c:	435c                	lw	a5,4(a4)
    258e:	4691                	li	a3,4
    2590:	842a                	mv	s0,a0
    2592:	8bb1                	andi	a5,a5,12
    2594:	00d78563          	beq	a5,a3,259e <RCC_GetClocksFreq+0x1a>
    2598:	46a1                	li	a3,8
    259a:	08d78063          	beq	a5,a3,261a <RCC_GetClocksFreq+0x96>
    259e:	016e37b7          	lui	a5,0x16e3
    25a2:	60078793          	addi	a5,a5,1536 # 16e3600 <_data_lma+0x16df7bc>
    25a6:	c01c                	sw	a5,0(s0)
    25a8:	400216b7          	lui	a3,0x40021
    25ac:	42dc                	lw	a5,4(a3)
    25ae:	8391                	srli	a5,a5,0x4
    25b0:	00f7f713          	andi	a4,a5,15
    25b4:	200007b7          	lui	a5,0x20000
    25b8:	05878793          	addi	a5,a5,88 # 20000058 <APBAHBPrescTable>
    25bc:	97ba                	add	a5,a5,a4
    25be:	238c                	lbu	a1,0(a5)
    25c0:	42dc                	lw	a5,4(a3)
    25c2:	4018                	lw	a4,0(s0)
    25c4:	0ff5f593          	andi	a1,a1,255
    25c8:	0807f793          	andi	a5,a5,128
    25cc:	00b75533          	srl	a0,a4,a1
    25d0:	e781                	bnez	a5,25d8 <RCC_GetClocksFreq+0x54>
    25d2:	853a                	mv	a0,a4
    25d4:	b01fd0ef          	jal	ra,d4 <__udivsi3>
    25d8:	c048                	sw	a0,4(s0)
    25da:	c408                	sw	a0,8(s0)
    25dc:	c448                	sw	a0,12(s0)
    25de:	400217b7          	lui	a5,0x40021
    25e2:	43dc                	lw	a5,4(a5)
    25e4:	468d                	li	a3,3
    25e6:	83ad                	srli	a5,a5,0xb
    25e8:	8bfd                	andi	a5,a5,31
    25ea:	0037d713          	srli	a4,a5,0x3
    25ee:	078a                	slli	a5,a5,0x2
    25f0:	8bf1                	andi	a5,a5,28
    25f2:	8fd9                	or	a5,a5,a4
    25f4:	0137f613          	andi	a2,a5,19
    25f8:	0037f713          	andi	a4,a5,3
    25fc:	00c6f463          	bgeu	a3,a2,2604 <RCC_GetClocksFreq+0x80>
    2600:	ff478713          	addi	a4,a5,-12 # 40020ff4 <__global_pointer$+0x2002078c>
    2604:	200007b7          	lui	a5,0x20000
    2608:	04478793          	addi	a5,a5,68 # 20000044 <ADCPrescTable>
    260c:	97ba                	add	a5,a5,a4
    260e:	238c                	lbu	a1,0(a5)
    2610:	ac5fd0ef          	jal	ra,d4 <__udivsi3>
    2614:	c808                	sw	a0,16(s0)
    2616:	a95fd06f          	j	aa <__riscv_restore_0>
    261a:	435c                	lw	a5,4(a4)
    261c:	02dc77b7          	lui	a5,0x2dc7
    2620:	c0078793          	addi	a5,a5,-1024 # 2dc6c00 <_data_lma+0x2dc2dbc>
    2624:	b749                	j	25a6 <RCC_GetClocksFreq+0x22>

00002626 <RCC_APB2PeriphClockCmd>:
    2626:	c599                	beqz	a1,2634 <RCC_APB2PeriphClockCmd+0xe>
    2628:	40021737          	lui	a4,0x40021
    262c:	4f1c                	lw	a5,24(a4)
    262e:	8d5d                	or	a0,a0,a5
    2630:	cf08                	sw	a0,24(a4)
    2632:	8082                	ret
    2634:	400217b7          	lui	a5,0x40021
    2638:	4f98                	lw	a4,24(a5)
    263a:	fff54513          	not	a0,a0
    263e:	8d79                	and	a0,a0,a4
    2640:	cf88                	sw	a0,24(a5)
    2642:	8082                	ret

00002644 <USART_Init>:
    2644:	a5dfd2ef          	jal	t0,a0 <__riscv_save_0>
    2648:	2916                	lhu	a3,16(a0)
    264a:	77f5                	lui	a5,0xffffd
    264c:	17fd                	addi	a5,a5,-1
    264e:	8ff5                	and	a5,a5,a3
    2650:	21f6                	lhu	a3,6(a1)
    2652:	25da                	lhu	a4,12(a1)
    2654:	1121                	addi	sp,sp,-24
    2656:	8fd5                	or	a5,a5,a3
    2658:	a91e                	sh	a5,16(a0)
    265a:	2556                	lhu	a3,12(a0)
    265c:	77fd                	lui	a5,0xfffff
    265e:	9f378793          	addi	a5,a5,-1549 # ffffe9f3 <__global_pointer$+0xdfffe18b>
    2662:	8ff5                	and	a5,a5,a3
    2664:	21d6                	lhu	a3,4(a1)
    2666:	842a                	mv	s0,a0
    2668:	c02e                	sw	a1,0(sp)
    266a:	8fd5                	or	a5,a5,a3
    266c:	2596                	lhu	a3,8(a1)
    266e:	8fd5                	or	a5,a5,a3
    2670:	25b6                	lhu	a3,10(a1)
    2672:	8fd5                	or	a5,a5,a3
    2674:	a55e                	sh	a5,12(a0)
    2676:	295e                	lhu	a5,20(a0)
    2678:	07c2                	slli	a5,a5,0x10
    267a:	83c1                	srli	a5,a5,0x10
    267c:	cff7f793          	andi	a5,a5,-769
    2680:	8f5d                	or	a4,a4,a5
    2682:	a95a                	sh	a4,20(a0)
    2684:	0048                	addi	a0,sp,4
    2686:	effff0ef          	jal	ra,2584 <RCC_GetClocksFreq>
    268a:	400147b7          	lui	a5,0x40014
    268e:	80078793          	addi	a5,a5,-2048 # 40013800 <__global_pointer$+0x20012f98>
    2692:	4582                	lw	a1,0(sp)
    2694:	06f41263          	bne	s0,a5,26f8 <USART_Init+0xb4>
    2698:	47c2                	lw	a5,16(sp)
    269a:	245a                	lhu	a4,12(s0)
    269c:	00179513          	slli	a0,a5,0x1
    26a0:	953e                	add	a0,a0,a5
    26a2:	0742                	slli	a4,a4,0x10
    26a4:	050e                	slli	a0,a0,0x3
    26a6:	8741                	srai	a4,a4,0x10
    26a8:	953e                	add	a0,a0,a5
    26aa:	418c                	lw	a1,0(a1)
    26ac:	04075863          	bgez	a4,26fc <USART_Init+0xb8>
    26b0:	0586                	slli	a1,a1,0x1
    26b2:	a23fd0ef          	jal	ra,d4 <__udivsi3>
    26b6:	06400593          	li	a1,100
    26ba:	c02a                	sw	a0,0(sp)
    26bc:	a19fd0ef          	jal	ra,d4 <__udivsi3>
    26c0:	4782                	lw	a5,0(sp)
    26c2:	00451493          	slli	s1,a0,0x4
    26c6:	06400593          	li	a1,100
    26ca:	853e                	mv	a0,a5
    26cc:	a35fd0ef          	jal	ra,100 <__umodsi3>
    26d0:	245e                	lhu	a5,12(s0)
    26d2:	07c2                	slli	a5,a5,0x10
    26d4:	87c1                	srai	a5,a5,0x10
    26d6:	0207d563          	bgez	a5,2700 <USART_Init+0xbc>
    26da:	050e                	slli	a0,a0,0x3
    26dc:	06400593          	li	a1,100
    26e0:	03250513          	addi	a0,a0,50
    26e4:	9f1fd0ef          	jal	ra,d4 <__udivsi3>
    26e8:	891d                	andi	a0,a0,7
    26ea:	8cc9                	or	s1,s1,a0
    26ec:	04c2                	slli	s1,s1,0x10
    26ee:	80c1                	srli	s1,s1,0x10
    26f0:	a406                	sh	s1,8(s0)
    26f2:	0161                	addi	sp,sp,24
    26f4:	9b7fd06f          	j	aa <__riscv_restore_0>
    26f8:	47b2                	lw	a5,12(sp)
    26fa:	b745                	j	269a <USART_Init+0x56>
    26fc:	058a                	slli	a1,a1,0x2
    26fe:	bf55                	j	26b2 <USART_Init+0x6e>
    2700:	0512                	slli	a0,a0,0x4
    2702:	06400593          	li	a1,100
    2706:	03250513          	addi	a0,a0,50
    270a:	9cbfd0ef          	jal	ra,d4 <__udivsi3>
    270e:	893d                	andi	a0,a0,15
    2710:	bfe9                	j	26ea <USART_Init+0xa6>

00002712 <USART_Cmd>:
    2712:	c591                	beqz	a1,271e <USART_Cmd+0xc>
    2714:	255e                	lhu	a5,12(a0)
    2716:	6709                	lui	a4,0x2
    2718:	8fd9                	or	a5,a5,a4
    271a:	a55e                	sh	a5,12(a0)
    271c:	8082                	ret
    271e:	255a                	lhu	a4,12(a0)
    2720:	77f9                	lui	a5,0xffffe
    2722:	17fd                	addi	a5,a5,-1
    2724:	8ff9                	and	a5,a5,a4
    2726:	bfd5                	j	271a <USART_Cmd+0x8>

00002728 <USART_SendData>:
    2728:	1ff5f593          	andi	a1,a1,511
    272c:	a14e                	sh	a1,4(a0)
    272e:	8082                	ret

00002730 <USART_GetFlagStatus>:
    2730:	210a                	lhu	a0,0(a0)
    2732:	8d6d                	and	a0,a0,a1
    2734:	00a03533          	snez	a0,a0
    2738:	8082                	ret

0000273a <Delay_Init>:
    273a:	967fd2ef          	jal	t0,a0 <__riscv_save_0>
    273e:	200007b7          	lui	a5,0x20000
    2742:	02c7a503          	lw	a0,44(a5) # 2000002c <SystemCoreClock>
    2746:	007a15b7          	lui	a1,0x7a1
    274a:	20058593          	addi	a1,a1,512 # 7a1200 <_data_lma+0x79d3bc>
    274e:	987fd0ef          	jal	ra,d4 <__udivsi3>
    2752:	0ff57513          	andi	a0,a0,255
    2756:	a6a18923          	sb	a0,-1422(gp) # 200002da <p_us>
    275a:	00551793          	slli	a5,a0,0x5
    275e:	8f89                	sub	a5,a5,a0
    2760:	078a                	slli	a5,a5,0x2
    2762:	953e                	add	a0,a0,a5
    2764:	050e                	slli	a0,a0,0x3
    2766:	a6a19823          	sh	a0,-1424(gp) # 200002d8 <p_ms>
    276a:	941fd06f          	j	aa <__riscv_restore_0>

0000276e <Delay_Ms>:
    276e:	933fd2ef          	jal	t0,a0 <__riscv_save_0>
    2772:	e000f437          	lui	s0,0xe000f
    2776:	405c                	lw	a5,4(s0)
    2778:	85aa                	mv	a1,a0
    277a:	9bf9                	andi	a5,a5,-2
    277c:	c05c                	sw	a5,4(s0)
    277e:	a701d503          	lhu	a0,-1424(gp) # 200002d8 <p_ms>
    2782:	933fd0ef          	jal	ra,b4 <__mulsi3>
    2786:	c808                	sw	a0,16(s0)
    2788:	00042423          	sw	zero,8(s0) # e000f008 <__global_pointer$+0xc000e7a0>
    278c:	401c                	lw	a5,0(s0)
    278e:	0017e793          	ori	a5,a5,1
    2792:	c01c                	sw	a5,0(s0)
    2794:	e000f7b7          	lui	a5,0xe000f
    2798:	43d8                	lw	a4,4(a5)
    279a:	8b05                	andi	a4,a4,1
    279c:	df75                	beqz	a4,2798 <Delay_Ms+0x2a>
    279e:	4398                	lw	a4,0(a5)
    27a0:	9b79                	andi	a4,a4,-2
    27a2:	c398                	sw	a4,0(a5)
    27a4:	907fd06f          	j	aa <__riscv_restore_0>

000027a8 <USART_Printf_Init>:
    27a8:	8f9fd2ef          	jal	t0,a0 <__riscv_save_0>
    27ac:	842a                	mv	s0,a0
    27ae:	6511                	lui	a0,0x4
    27b0:	1111                	addi	sp,sp,-28
    27b2:	4585                	li	a1,1
    27b4:	02050513          	addi	a0,a0,32 # 4020 <_data_lma+0x1dc>
    27b8:	e6fff0ef          	jal	ra,2626 <RCC_APB2PeriphClockCmd>
    27bc:	02000793          	li	a5,32
    27c0:	807c                	sh	a5,0(sp)
    27c2:	40011537          	lui	a0,0x40011
    27c6:	478d                	li	a5,3
    27c8:	c23e                	sw	a5,4(sp)
    27ca:	858a                	mv	a1,sp
    27cc:	47e1                	li	a5,24
    27ce:	40050513          	addi	a0,a0,1024 # 40011400 <__global_pointer$+0x20010b98>
    27d2:	c43e                	sw	a5,8(sp)
    27d4:	c5fff0ef          	jal	ra,2432 <GPIO_Init>
    27d8:	c622                	sw	s0,12(sp)
    27da:	40014437          	lui	s0,0x40014
    27de:	000807b7          	lui	a5,0x80
    27e2:	006c                	addi	a1,sp,12
    27e4:	80040513          	addi	a0,s0,-2048 # 40013800 <__global_pointer$+0x20012f98>
    27e8:	ca3e                	sw	a5,20(sp)
    27ea:	c802                	sw	zero,16(sp)
    27ec:	00011c23          	sh	zero,24(sp)
    27f0:	e55ff0ef          	jal	ra,2644 <USART_Init>
    27f4:	4585                	li	a1,1
    27f6:	80040513          	addi	a0,s0,-2048
    27fa:	f19ff0ef          	jal	ra,2712 <USART_Cmd>
    27fe:	0171                	addi	sp,sp,28
    2800:	8abfd06f          	j	aa <__riscv_restore_0>

00002804 <_write>:
    2804:	89dfd2ef          	jal	t0,a0 <__riscv_save_0>
    2808:	1171                	addi	sp,sp,-4
    280a:	84ae                	mv	s1,a1
    280c:	4401                	li	s0,0
    280e:	02c45f63          	bge	s0,a2,284c <_write+0x48>
    2812:	400147b7          	lui	a5,0x40014
    2816:	80078713          	addi	a4,a5,-2048 # 40013800 <__global_pointer$+0x20012f98>
    281a:	853a                	mv	a0,a4
    281c:	04000593          	li	a1,64
    2820:	c032                	sw	a2,0(sp)
    2822:	f0fff0ef          	jal	ra,2730 <USART_GetFlagStatus>
    2826:	400147b7          	lui	a5,0x40014
    282a:	80078713          	addi	a4,a5,-2048 # 40013800 <__global_pointer$+0x20012f98>
    282e:	4602                	lw	a2,0(sp)
    2830:	d56d                	beqz	a0,281a <_write+0x16>
    2832:	00848733          	add	a4,s1,s0
    2836:	00070583          	lb	a1,0(a4) # 2000 <ssd1306_drawImage+0x32>
    283a:	80078513          	addi	a0,a5,-2048
    283e:	0405                	addi	s0,s0,1
    2840:	05c2                	slli	a1,a1,0x10
    2842:	81c1                	srli	a1,a1,0x10
    2844:	ee5ff0ef          	jal	ra,2728 <USART_SendData>
    2848:	4602                	lw	a2,0(sp)
    284a:	b7d1                	j	280e <_write+0xa>
    284c:	8532                	mv	a0,a2
    284e:	0111                	addi	sp,sp,4
    2850:	85bfd06f          	j	aa <__riscv_restore_0>

00002854 <printchar>:
    2854:	1141                	addi	sp,sp,-16
    2856:	c606                	sw	ra,12(sp)
    2858:	c02e                	sw	a1,0(sp)
    285a:	cd0d                	beqz	a0,2894 <printchar+0x40>
    285c:	4118                	lw	a4,0(a0)
    285e:	87aa                	mv	a5,a0
    2860:	c305                	beqz	a4,2880 <printchar+0x2c>
    2862:	4158                	lw	a4,4(a0)
    2864:	557d                	li	a0,-1
    2866:	cb11                	beqz	a4,287a <printchar+0x26>
    2868:	4685                	li	a3,1
    286a:	00d71b63          	bne	a4,a3,2880 <printchar+0x2c>
    286e:	4798                	lw	a4,8(a5)
    2870:	00070023          	sb	zero,0(a4)
    2874:	0007a223          	sw	zero,4(a5)
    2878:	4505                	li	a0,1
    287a:	40b2                	lw	ra,12(sp)
    287c:	0141                	addi	sp,sp,16
    287e:	8082                	ret
    2880:	4798                	lw	a4,8(a5)
    2882:	4682                	lw	a3,0(sp)
    2884:	a314                	sb	a3,0(a4)
    2886:	4798                	lw	a4,8(a5)
    2888:	0705                	addi	a4,a4,1
    288a:	c798                	sw	a4,8(a5)
    288c:	43d8                	lw	a4,4(a5)
    288e:	177d                	addi	a4,a4,-1
    2890:	c3d8                	sw	a4,4(a5)
    2892:	b7dd                	j	2878 <printchar+0x24>
    2894:	4605                	li	a2,1
    2896:	858a                	mv	a1,sp
    2898:	f6dff0ef          	jal	ra,2804 <_write>
    289c:	bff1                	j	2878 <printchar+0x24>

0000289e <prints>:
    289e:	1101                	addi	sp,sp,-32
    28a0:	cc22                	sw	s0,24(sp)
    28a2:	c22e                	sw	a1,4(sp)
    28a4:	ce06                	sw	ra,28(sp)
    28a6:	ca26                	sw	s1,20(sp)
    28a8:	842a                	mv	s0,a0
    28aa:	4781                	li	a5,0
    28ac:	02000593          	li	a1,32
    28b0:	02064563          	bltz	a2,28da <prints+0x3c>
    28b4:	4592                	lw	a1,4(sp)
    28b6:	95be                	add	a1,a1,a5
    28b8:	00058583          	lb	a1,0(a1)
    28bc:	e58d                	bnez	a1,28e6 <prints+0x48>
    28be:	02c7d863          	bge	a5,a2,28ee <prints+0x50>
    28c2:	02e7d463          	bge	a5,a4,28ea <prints+0x4c>
    28c6:	8e19                	sub	a2,a2,a4
    28c8:	02000513          	li	a0,32
    28cc:	0026f593          	andi	a1,a3,2
    28d0:	c02a                	sw	a0,0(sp)
    28d2:	c589                	beqz	a1,28dc <prints+0x3e>
    28d4:	e701                	bnez	a4,28dc <prints+0x3e>
    28d6:	03000593          	li	a1,48
    28da:	c02e                	sw	a1,0(sp)
    28dc:	8a85                	andi	a3,a3,1
    28de:	4481                	li	s1,0
    28e0:	ea9d                	bnez	a3,2916 <prints+0x78>
    28e2:	84b2                	mv	s1,a2
    28e4:	a015                	j	2908 <prints+0x6a>
    28e6:	0785                	addi	a5,a5,1
    28e8:	b7f1                	j	28b4 <prints+0x16>
    28ea:	8e1d                	sub	a2,a2,a5
    28ec:	bff1                	j	28c8 <prints+0x2a>
    28ee:	4601                	li	a2,0
    28f0:	bfe1                	j	28c8 <prints+0x2a>
    28f2:	4582                	lw	a1,0(sp)
    28f4:	8522                	mv	a0,s0
    28f6:	c83a                	sw	a4,16(sp)
    28f8:	c632                	sw	a2,12(sp)
    28fa:	c43e                	sw	a5,8(sp)
    28fc:	f59ff0ef          	jal	ra,2854 <printchar>
    2900:	47a2                	lw	a5,8(sp)
    2902:	4632                	lw	a2,12(sp)
    2904:	4742                	lw	a4,16(sp)
    2906:	14fd                	addi	s1,s1,-1
    2908:	fe9045e3          	bgtz	s1,28f2 <prints+0x54>
    290c:	84b2                	mv	s1,a2
    290e:	00065363          	bgez	a2,2914 <prints+0x76>
    2912:	4481                	li	s1,0
    2914:	8e05                	sub	a2,a2,s1
    2916:	02e7c763          	blt	a5,a4,2944 <prints+0xa6>
    291a:	87a6                	mv	a5,s1
    291c:	4692                	lw	a3,4(sp)
    291e:	40978733          	sub	a4,a5,s1
    2922:	9736                	add	a4,a4,a3
    2924:	00070583          	lb	a1,0(a4)
    2928:	ed9d                	bnez	a1,2966 <prints+0xc8>
    292a:	84b2                	mv	s1,a2
    292c:	04904663          	bgtz	s1,2978 <prints+0xda>
    2930:	00065363          	bgez	a2,2936 <prints+0x98>
    2934:	4601                	li	a2,0
    2936:	40f2                	lw	ra,28(sp)
    2938:	4462                	lw	s0,24(sp)
    293a:	44d2                	lw	s1,20(sp)
    293c:	00f60533          	add	a0,a2,a5
    2940:	6105                	addi	sp,sp,32
    2942:	8082                	ret
    2944:	8f1d                	sub	a4,a4,a5
    2946:	87ba                	mv	a5,a4
    2948:	03000593          	li	a1,48
    294c:	8522                	mv	a0,s0
    294e:	c832                	sw	a2,16(sp)
    2950:	c63e                	sw	a5,12(sp)
    2952:	c43a                	sw	a4,8(sp)
    2954:	f01ff0ef          	jal	ra,2854 <printchar>
    2958:	47b2                	lw	a5,12(sp)
    295a:	4722                	lw	a4,8(sp)
    295c:	4642                	lw	a2,16(sp)
    295e:	17fd                	addi	a5,a5,-1
    2960:	f7e5                	bnez	a5,2948 <prints+0xaa>
    2962:	94ba                	add	s1,s1,a4
    2964:	bf5d                	j	291a <prints+0x7c>
    2966:	8522                	mv	a0,s0
    2968:	c632                	sw	a2,12(sp)
    296a:	c43e                	sw	a5,8(sp)
    296c:	ee9ff0ef          	jal	ra,2854 <printchar>
    2970:	47a2                	lw	a5,8(sp)
    2972:	4632                	lw	a2,12(sp)
    2974:	0785                	addi	a5,a5,1
    2976:	b75d                	j	291c <prints+0x7e>
    2978:	4582                	lw	a1,0(sp)
    297a:	8522                	mv	a0,s0
    297c:	c432                	sw	a2,8(sp)
    297e:	c23e                	sw	a5,4(sp)
    2980:	ed5ff0ef          	jal	ra,2854 <printchar>
    2984:	14fd                	addi	s1,s1,-1
    2986:	4622                	lw	a2,8(sp)
    2988:	4792                	lw	a5,4(sp)
    298a:	b74d                	j	292c <prints+0x8e>

0000298c <printInt>:
    298c:	7139                	addi	sp,sp,-64
    298e:	de06                	sw	ra,60(sp)
    2990:	dc22                	sw	s0,56(sp)
    2992:	da26                	sw	s1,52(sp)
    2994:	c23e                	sw	a5,4(sp)
    2996:	8332                	mv	t1,a2
    2998:	863a                	mv	a2,a4
    299a:	ed91                	bnez	a1,29b6 <printInt+0x2a>
    299c:	4692                	lw	a3,4(sp)
    299e:	03000793          	li	a5,48
    29a2:	4701                	li	a4,0
    29a4:	086c                	addi	a1,sp,28
    29a6:	86fc                	sh	a5,28(sp)
    29a8:	ef7ff0ef          	jal	ra,289e <prints>
    29ac:	50f2                	lw	ra,60(sp)
    29ae:	5462                	lw	s0,56(sp)
    29b0:	54d2                	lw	s1,52(sp)
    29b2:	6121                	addi	sp,sp,64
    29b4:	8082                	ret
    29b6:	84aa                	mv	s1,a0
    29b8:	8436                	mv	s0,a3
    29ba:	87ae                	mv	a5,a1
    29bc:	ca91                	beqz	a3,29d0 <printInt+0x44>
    29be:	4729                	li	a4,10
    29c0:	4401                	li	s0,0
    29c2:	00e31763          	bne	t1,a4,29d0 <printInt+0x44>
    29c6:	0005d563          	bgez	a1,29d0 <printInt+0x44>
    29ca:	40b007b3          	neg	a5,a1
    29ce:	4405                	li	s0,1
    29d0:	4686                	lw	a3,64(sp)
    29d2:	020109a3          	sb	zero,51(sp)
    29d6:	03310713          	addi	a4,sp,51
    29da:	fc668693          	addi	a3,a3,-58 # 40020fc6 <__global_pointer$+0x2002075e>
    29de:	c436                	sw	a3,8(sp)
    29e0:	859a                	mv	a1,t1
    29e2:	853e                	mv	a0,a5
    29e4:	ca32                	sw	a2,20(sp)
    29e6:	c83a                	sw	a4,16(sp)
    29e8:	c61a                	sw	t1,12(sp)
    29ea:	c03e                	sw	a5,0(sp)
    29ec:	f14fd0ef          	jal	ra,100 <__umodsi3>
    29f0:	46a5                	li	a3,9
    29f2:	4782                	lw	a5,0(sp)
    29f4:	4332                	lw	t1,12(sp)
    29f6:	4742                	lw	a4,16(sp)
    29f8:	4652                	lw	a2,20(sp)
    29fa:	00a6d463          	bge	a3,a0,2a02 <printInt+0x76>
    29fe:	46a2                	lw	a3,8(sp)
    2a00:	9536                	add	a0,a0,a3
    2a02:	03050513          	addi	a0,a0,48
    2a06:	fff70693          	addi	a3,a4,-1
    2a0a:	fea70fa3          	sb	a0,-1(a4)
    2a0e:	859a                	mv	a1,t1
    2a10:	853e                	mv	a0,a5
    2a12:	cc32                	sw	a2,24(sp)
    2a14:	ca3a                	sw	a4,20(sp)
    2a16:	c81a                	sw	t1,16(sp)
    2a18:	c63e                	sw	a5,12(sp)
    2a1a:	c036                	sw	a3,0(sp)
    2a1c:	eb8fd0ef          	jal	ra,d4 <__udivsi3>
    2a20:	47b2                	lw	a5,12(sp)
    2a22:	4342                	lw	t1,16(sp)
    2a24:	4752                	lw	a4,20(sp)
    2a26:	4662                	lw	a2,24(sp)
    2a28:	0467fd63          	bgeu	a5,t1,2a82 <printInt+0xf6>
    2a2c:	cc09                	beqz	s0,2a46 <printInt+0xba>
    2a2e:	ce29                	beqz	a2,2a88 <printInt+0xfc>
    2a30:	4792                	lw	a5,4(sp)
    2a32:	8b89                	andi	a5,a5,2
    2a34:	cbb1                	beqz	a5,2a88 <printInt+0xfc>
    2a36:	02d00593          	li	a1,45
    2a3a:	8526                	mv	a0,s1
    2a3c:	c432                	sw	a2,8(sp)
    2a3e:	e17ff0ef          	jal	ra,2854 <printchar>
    2a42:	4622                	lw	a2,8(sp)
    2a44:	167d                	addi	a2,a2,-1
    2a46:	4792                	lw	a5,4(sp)
    2a48:	8b91                	andi	a5,a5,4
    2a4a:	c785                	beqz	a5,2a72 <printInt+0xe6>
    2a4c:	4706                	lw	a4,64(sp)
    2a4e:	06100793          	li	a5,97
    2a52:	c432                	sw	a2,8(sp)
    2a54:	03000593          	li	a1,48
    2a58:	8526                	mv	a0,s1
    2a5a:	04f71163          	bne	a4,a5,2a9c <printInt+0x110>
    2a5e:	df7ff0ef          	jal	ra,2854 <printchar>
    2a62:	07800593          	li	a1,120
    2a66:	8526                	mv	a0,s1
    2a68:	dedff0ef          	jal	ra,2854 <printchar>
    2a6c:	4622                	lw	a2,8(sp)
    2a6e:	0409                	addi	s0,s0,2
    2a70:	1679                	addi	a2,a2,-2
    2a72:	4716                	lw	a4,68(sp)
    2a74:	4692                	lw	a3,4(sp)
    2a76:	4582                	lw	a1,0(sp)
    2a78:	8526                	mv	a0,s1
    2a7a:	e25ff0ef          	jal	ra,289e <prints>
    2a7e:	9522                	add	a0,a0,s0
    2a80:	b735                	j	29ac <printInt+0x20>
    2a82:	87aa                	mv	a5,a0
    2a84:	4702                	lw	a4,0(sp)
    2a86:	bfa9                	j	29e0 <printInt+0x54>
    2a88:	4682                	lw	a3,0(sp)
    2a8a:	02d00793          	li	a5,45
    2a8e:	4401                	li	s0,0
    2a90:	fef68fa3          	sb	a5,-1(a3)
    2a94:	ffe70793          	addi	a5,a4,-2
    2a98:	c03e                	sw	a5,0(sp)
    2a9a:	b775                	j	2a46 <printInt+0xba>
    2a9c:	db9ff0ef          	jal	ra,2854 <printchar>
    2aa0:	05800593          	li	a1,88
    2aa4:	b7c9                	j	2a66 <printInt+0xda>

00002aa6 <printLongLongInt>:
    2aa6:	4501                	li	a0,0
    2aa8:	8082                	ret

00002aaa <printDouble>:
    2aaa:	4501                	li	a0,0
    2aac:	8082                	ret

00002aae <print>:
    2aae:	fd810113          	addi	sp,sp,-40
    2ab2:	d022                	sw	s0,32(sp)
    2ab4:	ce26                	sw	s1,28(sp)
    2ab6:	d206                	sw	ra,36(sp)
    2ab8:	c42a                	sw	a0,8(sp)
    2aba:	82ae                	mv	t0,a1
    2abc:	8432                	mv	s0,a2
    2abe:	c602                	sw	zero,12(sp)
    2ac0:	4481                	li	s1,0
    2ac2:	00028583          	lb	a1,0(t0)
    2ac6:	ed91                	bnez	a1,2ae2 <print+0x34>
    2ac8:	47a2                	lw	a5,8(sp)
    2aca:	c789                	beqz	a5,2ad4 <print+0x26>
    2acc:	4581                	li	a1,0
    2ace:	853e                	mv	a0,a5
    2ad0:	d85ff0ef          	jal	ra,2854 <printchar>
    2ad4:	5092                	lw	ra,36(sp)
    2ad6:	5402                	lw	s0,32(sp)
    2ad8:	8526                	mv	a0,s1
    2ada:	44f2                	lw	s1,28(sp)
    2adc:	02810113          	addi	sp,sp,40
    2ae0:	8082                	ret
    2ae2:	02500793          	li	a5,37
    2ae6:	00f58963          	beq	a1,a5,2af8 <print+0x4a>
    2aea:	4522                	lw	a0,8(sp)
    2aec:	c816                	sw	t0,16(sp)
    2aee:	0485                	addi	s1,s1,1
    2af0:	d65ff0ef          	jal	ra,2854 <printchar>
    2af4:	42c2                	lw	t0,16(sp)
    2af6:	a005                	j	2b16 <print+0x68>
    2af8:	00128783          	lb	a5,1(t0)
    2afc:	00128713          	addi	a4,t0,1
    2b00:	00b79d63          	bne	a5,a1,2b1a <print+0x6c>
    2b04:	4522                	lw	a0,8(sp)
    2b06:	02500593          	li	a1,37
    2b0a:	c83a                	sw	a4,16(sp)
    2b0c:	d49ff0ef          	jal	ra,2854 <printchar>
    2b10:	4742                	lw	a4,16(sp)
    2b12:	0485                	addi	s1,s1,1
    2b14:	82ba                	mv	t0,a4
    2b16:	0285                	addi	t0,t0,1
    2b18:	b76d                	j	2ac2 <print+0x14>
    2b1a:	d7dd                	beqz	a5,2ac8 <print+0x1a>
    2b1c:	02b00693          	li	a3,43
    2b20:	04d78963          	beq	a5,a3,2b72 <print+0xc4>
    2b24:	00f6c863          	blt	a3,a5,2b34 <print+0x86>
    2b28:	02300693          	li	a3,35
    2b2c:	04d78663          	beq	a5,a3,2b78 <print+0xca>
    2b30:	4781                	li	a5,0
    2b32:	a005                	j	2b52 <print+0xa4>
    2b34:	02d00693          	li	a3,45
    2b38:	00d78a63          	beq	a5,a3,2b4c <print+0x9e>
    2b3c:	03000693          	li	a3,48
    2b40:	fed798e3          	bne	a5,a3,2b30 <print+0x82>
    2b44:	00228713          	addi	a4,t0,2
    2b48:	4789                	li	a5,2
    2b4a:	a021                	j	2b52 <print+0xa4>
    2b4c:	00228713          	addi	a4,t0,2
    2b50:	4785                	li	a5,1
    2b52:	00070683          	lb	a3,0(a4)
    2b56:	02b00613          	li	a2,43
    2b5a:	04c68363          	beq	a3,a2,2ba0 <print+0xf2>
    2b5e:	02d64163          	blt	a2,a3,2b80 <print+0xd2>
    2b62:	02300613          	li	a2,35
    2b66:	02c68b63          	beq	a3,a2,2b9c <print+0xee>
    2b6a:	82ba                	mv	t0,a4
    2b6c:	4501                	li	a0,0
    2b6e:	46a5                	li	a3,9
    2b70:	a081                	j	2bb0 <print+0x102>
    2b72:	00228713          	addi	a4,t0,2
    2b76:	bf6d                	j	2b30 <print+0x82>
    2b78:	00228713          	addi	a4,t0,2
    2b7c:	4791                	li	a5,4
    2b7e:	bfd1                	j	2b52 <print+0xa4>
    2b80:	02d00613          	li	a2,45
    2b84:	00c68963          	beq	a3,a2,2b96 <print+0xe8>
    2b88:	03000613          	li	a2,48
    2b8c:	fcc69fe3          	bne	a3,a2,2b6a <print+0xbc>
    2b90:	0027e793          	ori	a5,a5,2
    2b94:	a031                	j	2ba0 <print+0xf2>
    2b96:	0705                	addi	a4,a4,1
    2b98:	4785                	li	a5,1
    2b9a:	bfc1                	j	2b6a <print+0xbc>
    2b9c:	0047e793          	ori	a5,a5,4
    2ba0:	0705                	addi	a4,a4,1
    2ba2:	b7e1                	j	2b6a <print+0xbc>
    2ba4:	00251613          	slli	a2,a0,0x2
    2ba8:	9532                	add	a0,a0,a2
    2baa:	0506                	slli	a0,a0,0x1
    2bac:	953a                	add	a0,a0,a4
    2bae:	0285                	addi	t0,t0,1
    2bb0:	00028603          	lb	a2,0(t0)
    2bb4:	fd060713          	addi	a4,a2,-48 # f8ffffd0 <__global_pointer$+0xd8fff768>
    2bb8:	0ff77593          	andi	a1,a4,255
    2bbc:	feb6f4e3          	bgeu	a3,a1,2ba4 <print+0xf6>
    2bc0:	02e00713          	li	a4,46
    2bc4:	4699                	li	a3,6
    2bc6:	00e61e63          	bne	a2,a4,2be2 <print+0x134>
    2bca:	0285                	addi	t0,t0,1
    2bcc:	4681                	li	a3,0
    2bce:	45a5                	li	a1,9
    2bd0:	00028603          	lb	a2,0(t0)
    2bd4:	fd060613          	addi	a2,a2,-48
    2bd8:	0ff67713          	andi	a4,a2,255
    2bdc:	02e5f563          	bgeu	a1,a4,2c06 <print+0x158>
    2be0:	c636                	sw	a3,12(sp)
    2be2:	00028703          	lb	a4,0(t0)
    2be6:	06a00613          	li	a2,106
    2bea:	0ac70d63          	beq	a4,a2,2ca4 <print+0x1f6>
    2bee:	02e64363          	blt	a2,a4,2c14 <print+0x166>
    2bf2:	04c00613          	li	a2,76
    2bf6:	0ac70763          	beq	a4,a2,2ca4 <print+0x1f6>
    2bfa:	06800613          	li	a2,104
    2bfe:	08c70c63          	beq	a4,a2,2c96 <print+0x1e8>
    2c02:	4581                	li	a1,0
    2c04:	a82d                	j	2c3e <print+0x190>
    2c06:	00269713          	slli	a4,a3,0x2
    2c0a:	96ba                	add	a3,a3,a4
    2c0c:	0686                	slli	a3,a3,0x1
    2c0e:	96b2                	add	a3,a3,a2
    2c10:	0285                	addi	t0,t0,1
    2c12:	bf7d                	j	2bd0 <print+0x122>
    2c14:	07400613          	li	a2,116
    2c18:	08c70663          	beq	a4,a2,2ca4 <print+0x1f6>
    2c1c:	07a00613          	li	a2,122
    2c20:	08c70263          	beq	a4,a2,2ca4 <print+0x1f6>
    2c24:	06c00613          	li	a2,108
    2c28:	4581                	li	a1,0
    2c2a:	00c71a63          	bne	a4,a2,2c3e <print+0x190>
    2c2e:	00128603          	lb	a2,1(t0)
    2c32:	458d                	li	a1,3
    2c34:	00e61463          	bne	a2,a4,2c3c <print+0x18e>
    2c38:	0285                	addi	t0,t0,1
    2c3a:	4591                	li	a1,4
    2c3c:	0285                	addi	t0,t0,1
    2c3e:	00028603          	lb	a2,0(t0)
    2c42:	06000393          	li	t2,96
    2c46:	06100713          	li	a4,97
    2c4a:	00c3c463          	blt	t2,a2,2c52 <print+0x1a4>
    2c4e:	04100713          	li	a4,65
    2c52:	06700393          	li	t2,103
    2c56:	06c3c463          	blt	t2,a2,2cbe <print+0x210>
    2c5a:	06500393          	li	t2,101
    2c5e:	18765663          	bge	a2,t2,2dea <print+0x33c>
    2c62:	04700393          	li	t2,71
    2c66:	04c3c163          	blt	t2,a2,2ca8 <print+0x1fa>
    2c6a:	04500593          	li	a1,69
    2c6e:	16b65e63          	bge	a2,a1,2dea <print+0x33c>
    2c72:	04300713          	li	a4,67
    2c76:	eae610e3          	bne	a2,a4,2b16 <print+0x68>
    2c7a:	4018                	lw	a4,0(s0)
    2c7c:	00440393          	addi	t2,s0,4
    2c80:	ca16                	sw	t0,20(sp)
    2c82:	00e10c23          	sb	a4,24(sp)
    2c86:	c81e                	sw	t2,16(sp)
    2c88:	00010ca3          	sb	zero,25(sp)
    2c8c:	4701                	li	a4,0
    2c8e:	86be                	mv	a3,a5
    2c90:	862a                	mv	a2,a0
    2c92:	082c                	addi	a1,sp,24
    2c94:	a849                	j	2d26 <print+0x278>
    2c96:	00128603          	lb	a2,1(t0)
    2c9a:	4581                	li	a1,0
    2c9c:	fae611e3          	bne	a2,a4,2c3e <print+0x190>
    2ca0:	0289                	addi	t0,t0,2
    2ca2:	bf71                	j	2c3e <print+0x190>
    2ca4:	0285                	addi	t0,t0,1
    2ca6:	bfb1                	j	2c02 <print+0x154>
    2ca8:	06300693          	li	a3,99
    2cac:	fcd607e3          	beq	a2,a3,2c7a <print+0x1cc>
    2cb0:	06c6cf63          	blt	a3,a2,2d2e <print+0x280>
    2cb4:	05800693          	li	a3,88
    2cb8:	02d60363          	beq	a2,a3,2cde <print+0x230>
    2cbc:	bda9                	j	2b16 <print+0x68>
    2cbe:	07300693          	li	a3,115
    2cc2:	04d60463          	beq	a2,a3,2d0a <print+0x25c>
    2cc6:	02c6cb63          	blt	a3,a2,2cfc <print+0x24e>
    2cca:	06f00693          	li	a3,111
    2cce:	0ed60563          	beq	a2,a3,2db8 <print+0x30a>
    2cd2:	07000693          	li	a3,112
    2cd6:	0047e793          	ori	a5,a5,4
    2cda:	e2d61ee3          	bne	a2,a3,2b16 <print+0x68>
    2cde:	4691                	li	a3,4
    2ce0:	0cd59263          	bne	a1,a3,2da4 <print+0x2f6>
    2ce4:	00840393          	addi	t2,s0,8
    2ce8:	400c                	lw	a1,0(s0)
    2cea:	4050                	lw	a2,4(s0)
    2cec:	ca16                	sw	t0,20(sp)
    2cee:	c23a                	sw	a4,4(sp)
    2cf0:	c03e                	sw	a5,0(sp)
    2cf2:	c81e                	sw	t2,16(sp)
    2cf4:	87aa                	mv	a5,a0
    2cf6:	4701                	li	a4,0
    2cf8:	46c1                	li	a3,16
    2cfa:	a881                	j	2d4a <print+0x29c>
    2cfc:	07500693          	li	a3,117
    2d00:	06d60b63          	beq	a2,a3,2d76 <print+0x2c8>
    2d04:	07800693          	li	a3,120
    2d08:	bf45                	j	2cb8 <print+0x20a>
    2d0a:	4018                	lw	a4,0(s0)
    2d0c:	000046b7          	lui	a3,0x4
    2d10:	00440393          	addi	t2,s0,4
    2d14:	e3c68593          	addi	a1,a3,-452 # 3e3c <fontdata+0x16c>
    2d18:	c311                	beqz	a4,2d1c <print+0x26e>
    2d1a:	85ba                	mv	a1,a4
    2d1c:	4732                	lw	a4,12(sp)
    2d1e:	ca16                	sw	t0,20(sp)
    2d20:	c81e                	sw	t2,16(sp)
    2d22:	86be                	mv	a3,a5
    2d24:	862a                	mv	a2,a0
    2d26:	4522                	lw	a0,8(sp)
    2d28:	b77ff0ef          	jal	ra,289e <prints>
    2d2c:	a015                	j	2d50 <print+0x2a2>
    2d2e:	4691                	li	a3,4
    2d30:	02d59563          	bne	a1,a3,2d5a <print+0x2ac>
    2d34:	00840393          	addi	t2,s0,8
    2d38:	400c                	lw	a1,0(s0)
    2d3a:	4050                	lw	a2,4(s0)
    2d3c:	ca16                	sw	t0,20(sp)
    2d3e:	c23a                	sw	a4,4(sp)
    2d40:	c03e                	sw	a5,0(sp)
    2d42:	c81e                	sw	t2,16(sp)
    2d44:	87aa                	mv	a5,a0
    2d46:	4705                	li	a4,1
    2d48:	46a9                	li	a3,10
    2d4a:	4522                	lw	a0,8(sp)
    2d4c:	d5bff0ef          	jal	ra,2aa6 <printLongLongInt>
    2d50:	43c2                	lw	t2,16(sp)
    2d52:	94aa                	add	s1,s1,a0
    2d54:	841e                	mv	s0,t2
    2d56:	42d2                	lw	t0,20(sp)
    2d58:	bb7d                	j	2b16 <print+0x68>
    2d5a:	46b2                	lw	a3,12(sp)
    2d5c:	400c                	lw	a1,0(s0)
    2d5e:	c816                	sw	t0,16(sp)
    2d60:	c236                	sw	a3,4(sp)
    2d62:	c03a                	sw	a4,0(sp)
    2d64:	0411                	addi	s0,s0,4
    2d66:	872a                	mv	a4,a0
    2d68:	4685                	li	a3,1
    2d6a:	4629                	li	a2,10
    2d6c:	4522                	lw	a0,8(sp)
    2d6e:	c1fff0ef          	jal	ra,298c <printInt>
    2d72:	94aa                	add	s1,s1,a0
    2d74:	b341                	j	2af4 <print+0x46>
    2d76:	4691                	li	a3,4
    2d78:	00d59d63          	bne	a1,a3,2d92 <print+0x2e4>
    2d7c:	00840393          	addi	t2,s0,8
    2d80:	400c                	lw	a1,0(s0)
    2d82:	4050                	lw	a2,4(s0)
    2d84:	ca16                	sw	t0,20(sp)
    2d86:	c23a                	sw	a4,4(sp)
    2d88:	c03e                	sw	a5,0(sp)
    2d8a:	c81e                	sw	t2,16(sp)
    2d8c:	87aa                	mv	a5,a0
    2d8e:	4701                	li	a4,0
    2d90:	bf65                	j	2d48 <print+0x29a>
    2d92:	46b2                	lw	a3,12(sp)
    2d94:	400c                	lw	a1,0(s0)
    2d96:	c816                	sw	t0,16(sp)
    2d98:	c236                	sw	a3,4(sp)
    2d9a:	c03a                	sw	a4,0(sp)
    2d9c:	0411                	addi	s0,s0,4
    2d9e:	872a                	mv	a4,a0
    2da0:	4681                	li	a3,0
    2da2:	b7e1                	j	2d6a <print+0x2bc>
    2da4:	46b2                	lw	a3,12(sp)
    2da6:	c816                	sw	t0,16(sp)
    2da8:	400c                	lw	a1,0(s0)
    2daa:	4641                	li	a2,16
    2dac:	c236                	sw	a3,4(sp)
    2dae:	c03a                	sw	a4,0(sp)
    2db0:	0411                	addi	s0,s0,4
    2db2:	872a                	mv	a4,a0
    2db4:	4681                	li	a3,0
    2db6:	bf5d                	j	2d6c <print+0x2be>
    2db8:	4691                	li	a3,4
    2dba:	00d59e63          	bne	a1,a3,2dd6 <print+0x328>
    2dbe:	00840393          	addi	t2,s0,8
    2dc2:	400c                	lw	a1,0(s0)
    2dc4:	4050                	lw	a2,4(s0)
    2dc6:	ca16                	sw	t0,20(sp)
    2dc8:	c23a                	sw	a4,4(sp)
    2dca:	c03e                	sw	a5,0(sp)
    2dcc:	c81e                	sw	t2,16(sp)
    2dce:	87aa                	mv	a5,a0
    2dd0:	4701                	li	a4,0
    2dd2:	46a1                	li	a3,8
    2dd4:	bf9d                	j	2d4a <print+0x29c>
    2dd6:	46b2                	lw	a3,12(sp)
    2dd8:	400c                	lw	a1,0(s0)
    2dda:	c816                	sw	t0,16(sp)
    2ddc:	c236                	sw	a3,4(sp)
    2dde:	c03a                	sw	a4,0(sp)
    2de0:	0411                	addi	s0,s0,4
    2de2:	872a                	mv	a4,a0
    2de4:	4681                	li	a3,0
    2de6:	4621                	li	a2,8
    2de8:	b751                	j	2d6c <print+0x2be>
    2dea:	400c                	lw	a1,0(s0)
    2dec:	00840613          	addi	a2,s0,8
    2df0:	4040                	lw	s0,4(s0)
    2df2:	c23a                	sw	a4,4(sp)
    2df4:	872a                	mv	a4,a0
    2df6:	4522                	lw	a0,8(sp)
    2df8:	c832                	sw	a2,16(sp)
    2dfa:	c03e                	sw	a5,0(sp)
    2dfc:	8622                	mv	a2,s0
    2dfe:	87b6                	mv	a5,a3
    2e00:	46a9                	li	a3,10
    2e02:	ca16                	sw	t0,20(sp)
    2e04:	ca7ff0ef          	jal	ra,2aaa <printDouble>
    2e08:	94aa                	add	s1,s1,a0
    2e0a:	4442                	lw	s0,16(sp)
    2e0c:	b7a9                	j	2d56 <print+0x2a8>

00002e0e <printf>:
    2e0e:	fdc10113          	addi	sp,sp,-36
    2e12:	c82e                	sw	a1,16(sp)
    2e14:	ca32                	sw	a2,20(sp)
    2e16:	85aa                	mv	a1,a0
    2e18:	0810                	addi	a2,sp,16
    2e1a:	4501                	li	a0,0
    2e1c:	c606                	sw	ra,12(sp)
    2e1e:	cc36                	sw	a3,24(sp)
    2e20:	ce3a                	sw	a4,28(sp)
    2e22:	d03e                	sw	a5,32(sp)
    2e24:	c032                	sw	a2,0(sp)
    2e26:	c89ff0ef          	jal	ra,2aae <print>
    2e2a:	40b2                	lw	ra,12(sp)
    2e2c:	02410113          	addi	sp,sp,36
    2e30:	8082                	ret

00002e32 <puts>:
    2e32:	1141                	addi	sp,sp,-16
    2e34:	c422                	sw	s0,8(sp)
    2e36:	c226                	sw	s1,4(sp)
    2e38:	c606                	sw	ra,12(sp)
    2e3a:	211c                	lbu	a5,0(a0)
    2e3c:	84aa                	mv	s1,a0
    2e3e:	4401                	li	s0,0
    2e40:	81dc                	sb	a5,3(sp)
    2e42:	00310783          	lb	a5,3(sp)
    2e46:	0405                	addi	s0,s0,1
    2e48:	ef99                	bnez	a5,2e66 <puts+0x34>
    2e4a:	47a9                	li	a5,10
    2e4c:	00310593          	addi	a1,sp,3
    2e50:	4605                	li	a2,1
    2e52:	4501                	li	a0,0
    2e54:	81dc                	sb	a5,3(sp)
    2e56:	9afff0ef          	jal	ra,2804 <_write>
    2e5a:	8522                	mv	a0,s0
    2e5c:	40b2                	lw	ra,12(sp)
    2e5e:	4422                	lw	s0,8(sp)
    2e60:	4492                	lw	s1,4(sp)
    2e62:	0141                	addi	sp,sp,16
    2e64:	8082                	ret
    2e66:	4605                	li	a2,1
    2e68:	00310593          	addi	a1,sp,3
    2e6c:	4501                	li	a0,0
    2e6e:	997ff0ef          	jal	ra,2804 <_write>
    2e72:	008487b3          	add	a5,s1,s0
    2e76:	239c                	lbu	a5,0(a5)
    2e78:	81dc                	sb	a5,3(sp)
    2e7a:	b7e1                	j	2e42 <puts+0x10>

00002e7c <memcpy>:
    2e7c:	00a5c7b3          	xor	a5,a1,a0
    2e80:	8b8d                	andi	a5,a5,3
    2e82:	00c50733          	add	a4,a0,a2
    2e86:	e781                	bnez	a5,2e8e <memcpy+0x12>
    2e88:	478d                	li	a5,3
    2e8a:	02c7e763          	bltu	a5,a2,2eb8 <memcpy+0x3c>
    2e8e:	87aa                	mv	a5,a0
    2e90:	0ae57e63          	bgeu	a0,a4,2f4c <memcpy+0xd0>
    2e94:	2194                	lbu	a3,0(a1)
    2e96:	0785                	addi	a5,a5,1
    2e98:	0585                	addi	a1,a1,1
    2e9a:	fed78fa3          	sb	a3,-1(a5)
    2e9e:	fee7ebe3          	bltu	a5,a4,2e94 <memcpy+0x18>
    2ea2:	8082                	ret
    2ea4:	2194                	lbu	a3,0(a1)
    2ea6:	0785                	addi	a5,a5,1
    2ea8:	0585                	addi	a1,a1,1
    2eaa:	fed78fa3          	sb	a3,-1(a5)
    2eae:	fee7ebe3          	bltu	a5,a4,2ea4 <memcpy+0x28>
    2eb2:	4402                	lw	s0,0(sp)
    2eb4:	0111                	addi	sp,sp,4
    2eb6:	8082                	ret
    2eb8:	00357693          	andi	a3,a0,3
    2ebc:	87aa                	mv	a5,a0
    2ebe:	ca89                	beqz	a3,2ed0 <memcpy+0x54>
    2ec0:	2194                	lbu	a3,0(a1)
    2ec2:	0785                	addi	a5,a5,1
    2ec4:	0585                	addi	a1,a1,1
    2ec6:	fed78fa3          	sb	a3,-1(a5)
    2eca:	0037f693          	andi	a3,a5,3
    2ece:	bfc5                	j	2ebe <memcpy+0x42>
    2ed0:	ffc77693          	andi	a3,a4,-4
    2ed4:	fe068613          	addi	a2,a3,-32
    2ed8:	06c7f563          	bgeu	a5,a2,2f42 <memcpy+0xc6>
    2edc:	1171                	addi	sp,sp,-4
    2ede:	c022                	sw	s0,0(sp)
    2ee0:	49c0                	lw	s0,20(a1)
    2ee2:	0005a303          	lw	t1,0(a1)
    2ee6:	0085a383          	lw	t2,8(a1)
    2eea:	cbc0                	sw	s0,20(a5)
    2eec:	4d80                	lw	s0,24(a1)
    2eee:	0067a023          	sw	t1,0(a5)
    2ef2:	0045a303          	lw	t1,4(a1)
    2ef6:	cf80                	sw	s0,24(a5)
    2ef8:	4dc0                	lw	s0,28(a1)
    2efa:	0067a223          	sw	t1,4(a5)
    2efe:	00c5a283          	lw	t0,12(a1)
    2f02:	0105a303          	lw	t1,16(a1)
    2f06:	02458593          	addi	a1,a1,36
    2f0a:	cfc0                	sw	s0,28(a5)
    2f0c:	ffc5a403          	lw	s0,-4(a1)
    2f10:	0077a423          	sw	t2,8(a5)
    2f14:	0057a623          	sw	t0,12(a5)
    2f18:	0067a823          	sw	t1,16(a5)
    2f1c:	02478793          	addi	a5,a5,36
    2f20:	fe87ae23          	sw	s0,-4(a5)
    2f24:	fac7eee3          	bltu	a5,a2,2ee0 <memcpy+0x64>
    2f28:	f8d7f3e3          	bgeu	a5,a3,2eae <memcpy+0x32>
    2f2c:	4190                	lw	a2,0(a1)
    2f2e:	0791                	addi	a5,a5,4
    2f30:	0591                	addi	a1,a1,4
    2f32:	fec7ae23          	sw	a2,-4(a5)
    2f36:	bfcd                	j	2f28 <memcpy+0xac>
    2f38:	4190                	lw	a2,0(a1)
    2f3a:	0791                	addi	a5,a5,4
    2f3c:	0591                	addi	a1,a1,4
    2f3e:	fec7ae23          	sw	a2,-4(a5)
    2f42:	fed7ebe3          	bltu	a5,a3,2f38 <memcpy+0xbc>
    2f46:	f4e7e7e3          	bltu	a5,a4,2e94 <memcpy+0x18>
    2f4a:	8082                	ret
    2f4c:	8082                	ret
	...

00002f50 <epd_bitmap_logo>:
	...
    2f64:	0c00 0000 0300 0000 0000 0000 0000 0000     ................
    2f74:	0600 0001 0608 0000 0000 0000 0000 0000     ................
    2f84:	0300 0001 0c08 0000 0000 0000 0000 0000     ................
    2f94:	0100 8001 0818 0000 0000 0000 0000 0000     ................
    2fa4:	0100 8080 1810 0000 0000 0000 0000 0000     ................
    2fb4:	0000 c080 1030 0000 0000 0000 0000 0000     ....0...........
    2fc4:	0000 60de b063 0000 0000 0000 0000 0000     ...`c...........
    2fd4:	0000 30ff f0cf 0000 0000 0000 0000 0000     ...0............
    2fe4:	0000 f063 60fc 0000 0000 0000 0000 0000     ..c..`..........
    2ff4:	0000 1600 0080 0000 0000 0000 0000 0000     ................
    3004:	1000 8f0f 001f 0080 0000 0000 0000 0000     ................
    3014:	3000 cf19 8039 00c0 0000 0000 0000 0000     .0..9...........
    3024:	3800 6600 0160 00c0 0000 0000 0000 0000     .8.f`...........
    3034:	3f00 06f8 ff01 00c0 0000 0000 0000 0000     .?..............
    3044:	1f00 06f3 ff0c 0080 0000 0000 0000 0000     ................
    3054:	0700 8fe2 7e14 0000 0000 0000 0000 0000     .....~..........
    3064:	0000 50e2 70a4 0000 0000 0000 0000 0000     ...P.p..........
    3074:	0000 d031 c0b8 0000 0000 0000 0000 0000     ..1.............
    3084:	0000 1030 c080 0000 0000 0000 0000 0000     ..0.............
    3094:	0000 3030 c0c0 0000 0000 0000 0000 0000     ..00............
    30a4:	0400 5030 c2a0 0000 0000 0000 0000 0000     ..0P............
    30b4:	0400 0979 e209 0000 0000 0000 0000 0000     ..y.............
    30c4:	0700 8ff8 fe11 0000 0000 0000 0000 0000     ................
    30d4:	0300 79f8 fce1 0000 0000 0000 0000 0000     ...y............
    30e4:	0300 00fc fc03 0000 0000 0000 0000 0000     ................
    30f4:	0000 06fe f007 0000 0000 0000 0000 0000     ................
    3104:	0000 0678 e001 0000 0000 0000 0000 0000     ..x.............
    3114:	0000 0600 0000 0000 0000 0000 0000 0000     ................
    3124:	0000 0600 0000 0000 0000 0000 0000 0000     ................
    3134:	0000 0200 0000 0000 0000 0000 0000 0000     ................
	...
    3150:	6564 6576 6f6c 6570 0064 0000 6977 6874     developed...with
    3160:	0000 0000 6f6c 6576 0000 0000 7266 6d6f     ....love....from
    3170:	0000 0000 656d 6978 6f63 0000 7962 0000     ....mexico..by..
    3180:	6c65 6365 7274 6e6f 6369 0000 6163 7374     electronic..cats
    3190:	0000 0000                                   ....

00003194 <epd_bitmap_menu_1>:
    3194:	0040 0000 0000 0000 0000 0000 0000 0000     @...............
    31a4:	00e0 0000 0000 0000 0000 0000 0000 0000     ................
    31b4:	00e0 0000 0000 0000 0000 0000 0000 0000     ................
    31c4:	00e0 0000 0000 0000 0000 0000 0000 0000     ................
    31d4:	00e0 0000 0000 0000 0000 0000 0000 0000     ................
    31e4:	00e0 0000 0000 0000 0000 0000 0000 0000     ................
    31f4:	00e0 0000 0000 0000 0000 0000 0000 0000     ................
    3204:	00e0 0000 0000 0000 0000 0000 0000 0000     ................
    3214:	00e0 0000 0000 0000 0000 0070 0000 0000     ..........p.....
    3224:	0040 0000 0000 0000 0000 7f70 3c00 001e     @.........p..<..
	...
    323c:	0000 ff71 4300 00e1 0040 0000 0000 0000     ..q..C..@.......
    324c:	0000 8771 8000 8000 0000 0000 0000 0000     ..q.............
    325c:	0000 0773 0801 4008 0040 0000 0000 3000     ..s....@@......0
    326c:	e033 0773 1c01 4014 0000 0000 0000 3000     3.s....@.......0
    327c:	f067 0773 0801 4008 0040 0000 0000 1800     g.s....@@.......
    328c:	3866 8771 0001 4000 0000 0000 0000 1800     f8q....@........
    329c:	1cc6 ff70 0001 4000 0040 0000 0000 1800     ..p....@@.......
    32ac:	0cc6 7f70 0701 40f0 0000 0000 0000 0800     ..p....@........
    32bc:	0cc7 0770 0801 4008 0040 0000 0000 0d00     ..p....@@.......
    32cc:	8c87 0770 0801 4008 0000 0000 0000 0d00     ..p....@........
    32dc:	dc86 0770 1001 4004 0040 0000 0000 0700     ..p....@@.......
    32ec:	f806 0770 2001 4002 0000 0000 0000 0300     ..p.. .@........
    32fc:	700c 0770 c000 8001 0040 0000 0000 0300     .pp.....@.......
	...
    3318:	0000 0300 0000 0000 0000 0000 0040 0000     ............@...
    3328:	0000 0300 0010 0000 0000 0000 0000 0000     ................
    3338:	0000 0100 00f0 0000 0000 0000 0040 0000     ............@...
    3348:	0000 0000 00e0 0000 0000 0000 0000 0000     ................
	...
    3364:	0040 0000 0000 0000 0000 0000 0000 0000     @...............
	...
    3384:	0040 0000 0000 0000 0000 0000 0000 0000     @...............

00003394 <epd_bitmap_menu_2>:
	...
    33a4:	0040 0000 0000 0000 0000 0000 0000 0000     @...............
	...
    33c4:	0040 0000 0000 0000 0000 0000 0000 0000     @...............
	...
    33e4:	0040 0000 0000 0000 0000 0000 0000 0000     @...............
	...
    3404:	0040 0000 0000 0000 0000 0000 0100 00e0     @...............
	...
    3420:	0200 0010 0040 0000 0000 0000 8f1f 03f0     ....@...........
    3430:	0400 0088 00e0 0000 0000 0000 8f71 03f0     ............q...
    3440:	0500 0088 00e0 0000 0000 0000 80c1 0330     ..............0.
    3450:	0b00 0004 00e0 0000 0000 0100 8081 0330     ..............0.
    3460:	0a00 0004 00e0 0000 0000 c103 8001 0330     ..............0.
    3470:	0800 0004 00e0 0000 0000 6306 8001 0330     ...........c..0.
    3480:	0800 0004 00e0 0000 0000 3304 8f01 03f0     ...........3....
    3490:	0800 0004 00e0 0000 0000 3300 8701 03f0     ...........3....
    34a0:	0800 0004 00e0 0000 0000 e301 8001 0330     ..............0.
    34b0:	0800 0004 00e0 0000 0000 0107 8001 0330     ..............0.
    34c0:	1f00 00fe 0040 0000 0000 010c 8081 0330     ....@.........0.
    34d0:	0400 0010 0000 0000 0000 100c 80c1 0330     ..............0.
    34e0:	0400 0010 0040 0000 0000 7007 8f61 fff1     ....@......pa...
    34f0:	0400 0010 0000 0000 0000 c001 8f3f fff1     ............?...
    3500:	0400 0010 0040 0000 0000 0000 0000 0000     ....@...........
    3510:	0000 0010 0000 0000 0000 0000 0000 0000     ................
    3520:	0000 0010 0040 0000 0000 0000 0000 0000     ....@...........
	...
    3544:	0040 0000 0000 0000 0000 0000 0000 0000     @...............
	...
    3564:	0040 0000 0000 0000 0000 0000 0000 0000     @...............
	...
    3584:	0040 0000 0000 0000 0000 0000 0000 0000     @...............

00003594 <epd_bitmap_menu_3>:
	...
    35a4:	0040 0000 0000 0000 0000 0000 0000 0000     @...............
	...
    35c4:	0040 0000 0000 0000 0000 0000 0000 0000     @...............
	...
    35e4:	0040 0000 0000 0000 0000 0000 0000 0000     @...............
	...
    3604:	0040 0000 0000 0000 0000 0000 0000 0000     @...............
    3614:	0000 0000 0600 0000 0000 7080 0300 00f0     ...........p....
    3624:	0040 0000 0600 0000 0000 70c0 0e00 001c     @..........p....
    3634:	0000 0000 0600 0000 0000 70c0 1800 0006     ...........p....
    3644:	0040 0000 0600 0000 0000 f8c0 3000 0003     @............0..
    3654:	0000 0000 0600 0000 0000 d8c0 2000 00c1     ............. ..
    3664:	0040 0000 3f00 3098 1cf8 d8c0 6000 80c1     @....?.0.....`..
    3674:	0000 0000 7f00 3118 3fdc 8cc1 4000 8000     .......1.?...@..
    3684:	0040 0000 0600 3318 638e 8cc3 4000 80c0     @......3.c...@..
    3694:	0000 0000 0600 3318 4106 06c3 4000 80c0     .......3.A...@..
    36a4:	0040 0000 0600 3218 c002 fec3 4000 80c0     @......2.....@..
    36b4:	0000 0000 0600 3218 c002 ffc7 6000 80c1     .......2.....`..
    36c4:	0040 0000 0600 3318 4006 03c6 2000 00c1     @......3.@... ..
    36d4:	0000 0000 0600 331c 608e 03c6 3000 0003     .......3.`...0..
    36e4:	0040 0000 6e00 6116 31dc 01c4 1800 0006     @....n.a.1......
    36f4:	00e0 0000 3c00 c013 1ff8 018c 0e80 001c     .....<..........
    3704:	00e0 0000 0000 0000 0000 0000 0300 00f0     ................
    3714:	00e0 0000 0000 0000 0000 0000 0000 0000     ................
    3724:	00e0 0000 0000 0000 0000 0000 0000 0000     ................
    3734:	00e0 0000 0000 0000 0000 0000 0000 0000     ................
    3744:	00e0 0000 0000 0000 0000 0000 0000 0000     ................
    3754:	00e0 0000 0000 0000 0000 0000 0000 0000     ................
    3764:	00e0 0000 0000 0000 0000 0000 0000 0000     ................
    3774:	00e0 0000 0000 0000 0000 0000 0000 0000     ................
    3784:	0040 0000 0000 0000 0000 0000 0000 0000     @...............
    3794:	6573 656c 7463 0000 656c 0064 7073 6565     select..led.spee
    37a4:	0064 0000                                   d...

000037a8 <menus_bitmaps>:
    37a8:	3194 0000 3394 0000 3594 0000 6166 7473     .1...3...5..fast
    37b8:	0000 0000 6c73 776f 0000 0000 666f 0066     ....slow....off.

000037c8 <OLED_INIT_CMD>:
    37c8:	3fa8 148d 0020 0021 227f 3f00 12da c8a1     .?.. .!..".?....
    37d8:	00af 0000 0dca 0000 0dd0 0000 0dd6 0000     ................
    37e8:	0dd6 0000 0dd6 0000 0dca 0000 0dca 0000     ................

000037f8 <BACKGROUND_TTRIS>:
    37f8:	02fc f5f9 0d1d 0d0d 0b0d 1f07 203f 2f2f     ............? //
    3808:	223f 203f 3339 3f20 2a20 3f2e 2a2d 362a     ?"? 93 ? *.?-**6
    3818:	071f 0d0b 0d0d 1d0d f9f5 fc02 00f8 0040     ..............@.
    3828:	4040 4000 0040 4040 4000 0040 4040 4000     @@.@@.@@.@@.@@.@
    3838:	0040 4040 4000 0040 4040 4000 0040 4040     @.@@.@@.@@.@@.@@
    3848:	4000 f800 02fc f5f9 0d1d 0b0d 1f07 2d3f     .@............?-
    3858:	2a2a 3f36 2e31 3f2e 2e31 312e 203f 323a     **6?1..?1..1? :2
    3868:	3f2d 2a20 3f2e 071f 0d0b 1d0d f9f5 fc02     -? *.?..........
    3878:	00ff bf7f c0e0 c0c0 c0c0 c0c0 c0c0 c0c0     ................
    3888:	c0c0 c0c0 c0c0 c0c0 c0c0 c0c0 c0c0 c0c0     ................
    3898:	c0c0 c0c0 c0c0 e0c0 7fbf ff00 00ff 0000     ................
	...
    38c8:	0000 ff00 00ff bf7f c0e0 c0c0 c0c0 c0c0     ................
    38d8:	c0c0 c0c0 c0c0 c0c0 c0c0 c0c0 c0c0 c0c0     ................
    38e8:	c0c0 c0c0 c0c0 c0c0 c0c0 e0c0 7fbf ff00     ................
    38f8:	0100 5afa 5a7a 5ada 5a7a 5ada 5a7a dada     ...ZzZ.ZzZ.ZzZ..
    3908:	5a7a 5ada 5a7a 5ada 5a7a 5ada 5a7a 5ada     zZ.ZzZ.ZzZ.ZzZ.Z
    3918:	5a7a 5ada 5a7a 5ada fa7a 0001 00ff 0000     zZ.ZzZ.Zz.......
	...
    3948:	0000 ff00 0100 fafa 5a5a 7a5a 5a5a 7a5a     ........ZZZzZZZz
    3958:	5a5a 7a5a 5a5a 7a5a 5a5a 7a5a dada 7a5a     ZZZzZZZzZZZz..Zz
    3968:	da5a 7a5a da5a 7a5a da5a 7a5a fa5a 0001     Z.ZzZ.ZzZ.ZzZ...
    3978:	0000 55ff 5577 55dd 5577 f5dd 3fff e007     ...UwU.UwU...?..
    3988:	bcfc 81e0 1d07 d57d 5577 55dd 5577 55dd     ......}.wU.UwU.U
    3998:	5577 55dd 5577 55dd ff77 0000 00ff 0000     wU.UwU.Uw.......
	...
    39c8:	0000 ff00 0000 00ff fdfe 0307 0303 0303     ................
    39d8:	0303 0303 0303 0303 0703 fefd 0100 f7ff     ................
    39e8:	ddd5 f7d5 ddd5 f7d5 ddd5 77d5 ff55 0000     ...........wU...
    39f8:	0000 55ff 5577 f5dd 3f7f c38f dcf0 f7bf     ...UwU...?......
    3a08:	fdef d7ea f0bc 8140 1d07 3f75 f187 0381     ......@...u?....
    3a18:	350f 55dd 5577 55dd ff77 0000 00ff 0000     .5.UwU.Uw.......
	...
    3a48:	0000 ff00 0000 00ff ffff 0000 0000 0000     ................
    3a58:	0000 0000 0000 fc00 c27e 7e5e 5242 7e5a     ........~.^~BRZ~
    3a68:	5e62 7e62 5242 7e5a 5ec2 01fc ff03 0000     b^b~BRZ~.^......
    3a78:	0000 55ff 5577 57df f87c 04e1 ee2a 4eda     ...UwU.W|...*..N
    3a88:	0a0a 1a0e 0aae 0105 60c0 6f78 7e5f 6f75     .........`xo_~uo
    3a98:	6058 03c0 750f 55dd ff77 0000 00ff 0000     X`...u.Uw.......
	...
    3ac8:	0000 ff00 0000 78ff e573 6667 e666 6666     .......xs.gff.ff
    3ad8:	fe6e 0efe c606 ff00 80ff 0000 0000 0000     n...............
	...
    3af0:	ff80 00ff ff00 0000 0000 150f 9517 151d     ................
    3b00:	1f97 009f bf09 953a 0020 0091 00aa 8000     ......:. .......
    3b10:	8502 2d37 0795 0d85 8537 8002 1c18 159f     ..7-....7.......
    3b20:	0f17 0000 00ff 0000 0000 0000 0000 0000     ................
	...
    3b48:	0000 ff00 0000 170f 9d15 1715 1d95 1795     ................
    3b58:	7f15 803f 1d00 1994 139a 9313 9313 1713     ..?.............
    3b68:	3f7f 0387 9313 9313 1213 1091 0f18 0000     .?..............
    3b78:	0000 0000 0f06 1f0d 161d 1d1f 1d1f 3f36     ..............6?
    3b88:	7f3d 767d fdff fdff 7f76 3f7d 363d 1d1f     =.}v....v.}?=6..
    3b98:	1d1f 1f16 0f1d 060d 0000 0000 80ff 8080     ................
    3ba8:	8080 8080 8080 8080 8080 8080 8080 8080     ................
    3bb8:	8080 8080 8080 8080 8080 8080 8080 8080     ................
    3bc8:	8080 ff80 0000 0000 0f06 1f0d 161d 1d1f     ................
    3bd8:	1d1f 3f36 7f3d 767d fdff fdff 7f76 3f7d     ..6?=.}v....v.}?
    3be8:	363d 1d1f 1d1f 1f16 0f1d 060d 0000 0000     =6..............

00003bf8 <CSWTCH.214>:
    3bf8:	0502 0c08                                   ....

00003bfc <CSWTCH.215>:
    3bfc:	0001 0001 0101 0000                         ........

00003c04 <CSWTCH.216>:
    3c04:	ff01 0000 0001 0000                         ........

00003c0c <H_Grid_TTTRIS>:
    3c0c:	0000 0100 0101 0202 0302 0303 0404 0504     ................
    3c1c:	0505 0606 0706 0707 0808 0908 0909 0a0a     ................
    3c2c:	0b0a 0b0b 0c0c 000c                         ........

00003c34 <MEM_TTTRIS>:
    3c34:	0200 0400 0703 0906 0c09 0f0b 110e 1311     ................

00003c44 <Pieces_TTRIS>:
    3c44:	2000 0070 0000 3000 0030 0000 6030 0000     . p....00...0`..
    3c54:	3010 0020 2020 2020 0000 2020 0060 2000     .0 .    ..  `.. 
    3c64:	3020 0000                                    0..

00003c68 <police_TTRIS>:
    3c68:	0104 111f 001f 1f00 0000 151d 0017 1511     ................
    3c78:	001f 0407 001f 1517 001d 151f 001d 1d01     ................
    3c88:	0003 151f 001f 1517 001f 0000               ............

00003c94 <tiny_PREVIEW_block_TTTRIS>:
    3c94:	0102 c0c0                                   ....

00003c98 <tinyblock2_TTTRIS>:
    3c98:	0103 e0e0 00e0 0000                         ........

00003ca0 <tinyblock_TTTRIS>:
    3ca0:	0103 0507 0007 0000 20b2 0000 2092 0000     ......... ... ..
    3cb0:	20ee 0000 20fe 0000 210e 0000 211c 0000     . ... ...!...!..

00003cc0 <expand>:
    3cc0:	0200 0a08 2220 2a28 8280 8a88 a2a0 aaa8     .... "(*........

00003cd0 <fontdata>:
    3cd0:	0000 0c78 cc7c 0076 60e0 667c 6666 00dc     ..x.|.v..`|fff..
    3ce0:	0000 c67c c6c0 007c 0c1c cc7c cccc 0076     ..|...|...|...v.
    3cf0:	0000 c67c c0fe 007c 663c f860 6060 00f0     ..|...|.<f`.``..
    3d00:	0000 cc76 7ccc f80c 60e0 766c 6666 00e6     ..v..|...`lvff..
    3d10:	0018 1838 1818 003c 0006 0606 6606 3c66     ..8...<......ff<
    3d20:	60e0 6c66 6c78 00e6 1838 1818 1818 003c     .`flxl..8.....<.
    3d30:	0000 feec d6d6 00d6 0000 66dc 6666 0066     ...........ffff.
    3d40:	0000 c67c c6c6 007c 0000 66dc 7c66 f060     ..|...|....ff|`.
    3d50:	0000 cc76 7ccc 1e0c 0000 76dc 6060 00f0     ..v..|.....v``..
    3d60:	0000 c07e 067c 00fc 3030 30fc 3630 001c     ..~.|...00.006..
    3d70:	0000 cccc cccc 0076 0000 c6c6 6cc6 0038     ......v......l8.
    3d80:	0000 d6c6 fed6 006c 0000 6cc6 6c38 00c6     ......l....l8l..
    3d90:	0000 c6c6 7ec6 fc06 0000 4c7e 3218 007e     .....~....~L.2~.
    3da0:	7373 3164 3033 5f36 3269 5f63 7265 6f72     ssd1306_i2c_erro
    3db0:	2072 202d 6974 656d 756f 2074 6177 7469     r - timeout wait
    3dc0:	6e69 2067 6f66 2072 7325 0d0a 0000 0000     ing for %s......
    3dd0:	6548 6572 0000 0000 7953 7473 6d65 6f43     Here....SystemCo
    3de0:	6572 6c43 636f 3a6b 2520 2064 484d 0d7a     reClock: %d MHz.
    3df0:	000a 0000 6f6e 2074 7562 7973 0000 0000     ....not busy....
    3e00:	616d 7473 7265 6d20 646f 0065 7274 6e61     master mode.tran
    3e10:	6d73 7469 6d20 646f 0065 0000 7874 6520     smit mode...tx e
    3e20:	706d 7974 0000 0000 7274 6e61 6d73 7469     mpty....transmit
    3e30:	6320 6d6f 6c70 7465 0065 0000 6e28 6c75      complete...(nul
    3e40:	296c 0000                                   l)..
